??0Actor@@QEAA@$$QEAV0@@Z
??0Actor@@QEAA@V?$basic_string@DU?$char_traits@D@std@@V?$allocator@D@2@@std@@_KUActorHandle@@@Z
??0AngelScriptRuntime@@QEAA@AEAVScriptComponent@@@Z
??0AnimatorComponent@@QEAA@$$QEAV0@@Z
??0AnimatorComponent@@QEAA@AEBV0@@Z
??0AnimatorComponent@@QEAA@XZ
??0AnimatorController@@QEAA@$$QEAV0@@Z
??0AnimatorController@@QEAA@AEBV0@@Z
??0AnimatorController@@QEAA@XZ
??0Application@@QEAA@UApplicationConfig@@@Z
??0Asset@@IEAA@W4AssetType@@AEBV?$basic_string@DU?$char_traits@D@std@@V?$allocator@D@2@@std@@@Z
??0AssetDatabase@@QEAA@$$QEAV0@@Z
??0AssetDatabase@@QEAA@AEBV0@@Z
??0AssetDatabase@@QEAA@XZ
??0AssetDatabaseValidationReport@@QEAA@$$QEAU0@@Z
??0AssetDatabaseValidationReport@@QEAA@AEBU0@@Z
??0AssetDatabaseValidationReport@@QEAA@XZ
??0AssetManager@@AEAA@XZ
??0AssetMeta@@QEAA@$$QEAU0@@Z
??0AssetMeta@@QEAA@AEBU0@@Z
??0AssetMeta@@QEAA@XZ
??0AudioEngine@@AEAA@XZ
??0AudioListenerComponent@@QEAA@$$QEAV0@@Z
??0AudioListenerComponent@@QEAA@AEBV0@@Z
??0AudioListenerComponent@@QEAA@XZ
??0AudioSourceComponent@@QEAA@$$QEAV0@@Z
??0AudioSourceComponent@@QEAA@AEBV0@@Z
??0AudioSourceComponent@@QEAA@XZ
??0BoxColliderComponent@@QEAA@$$QEAV0@@Z
??0BoxColliderComponent@@QEAA@AEBV0@@Z
??0BoxColliderComponent@@QEAA@XZ
??0Camera@@QEAA@XZ
??0CameraComponent@@QEAA@$$QEAV0@@Z
??0CameraComponent@@QEAA@AEBV0@@Z
??0CameraComponent@@QEAA@XZ
??0CapsuleColliderComponent@@QEAA@$$QEAV0@@Z
??0CapsuleColliderComponent@@QEAA@AEBV0@@Z
??0CapsuleColliderComponent@@QEAA@XZ
??0CharacterControllerComponent@@QEAA@$$QEAV0@@Z
??0CharacterControllerComponent@@QEAA@AEBV0@@Z
??0CharacterControllerComponent@@QEAA@XZ
??0ColliderComponent@@QEAA@$$QEAV0@@Z
??0ColliderComponent@@QEAA@AEBV0@@Z
??0ColliderComponent@@QEAA@XZ
??0Component@@IEAA@XZ
??0Component@@QEAA@AEBV0@@Z
??0ComponentRegistry@@AEAA@XZ
??0ContentArchiveReader@@QEAA@$$QEAV0@@Z
??0ContentArchiveReader@@QEAA@AEBV0@@Z
??0ContentArchiveReader@@QEAA@XZ
??0CookManifest@@QEAA@$$QEAU0@@Z
??0CookManifest@@QEAA@AEBU0@@Z
??0CookManifest@@QEAA@XZ
??0DebugDrawPass@@QEAA@PEAVIRHIDevice@@@Z
??0DebugDrawService@@AEAA@XZ
??0DeferredLightingPass@@QEAA@$$QEAV0@@Z
??0DeferredLightingPass@@QEAA@AEBV0@@Z
??0DeferredLightingPass@@QEAA@PEAVIRHIDevice@@@Z
??0EnemyAIComponent@@QEAA@$$QEAV0@@Z
??0EnemyAIComponent@@QEAA@AEBV0@@Z
??0EnemyAIComponent@@QEAA@XZ
??0Engine@@QEAA@$$QEAV0@@Z
??0Engine@@QEAA@AEBV0@@Z
??0Engine@@QEAA@UEngineConfig@@@Z
??0GBufferPass@@QEAA@PEAVIRHIDevice@@@Z
??0GameFlowController@@QEAA@XZ
??0GameViewport@@QEAA@PEAVIRHIDevice@@PEAVIRHIFrameContext@@PEAVIRHIReadbackService@@@Z
??0GameplayFeedbackComponent@@QEAA@$$QEAV0@@Z
??0GameplayFeedbackComponent@@QEAA@AEBV0@@Z
??0GameplayFeedbackComponent@@QEAA@XZ
??0GpuResource@@QEAA@XZ
??0GpuSceneDatabase@@QEAA@PEAVIRHIDevice@@@Z
??0GpuUploadQueue@@AEAA@XZ
??0HealthComponent@@QEAA@$$QEAV0@@Z
??0HealthComponent@@QEAA@AEBV0@@Z
??0HealthComponent@@QEAA@XZ
??0HitboxComponent@@QEAA@$$QEAV0@@Z
??0HitboxComponent@@QEAA@AEBV0@@Z
??0HitboxComponent@@QEAA@XZ
??0HurtboxComponent@@QEAA@$$QEAV0@@Z
??0HurtboxComponent@@QEAA@AEBV0@@Z
??0HurtboxComponent@@QEAA@XZ
??0IReadOnlyFileSystem@@QEAA@AEBV0@@Z
??0IReadOnlyFileSystem@@QEAA@XZ
??0ISceneNavigationSubsystem@@QEAA@AEBV0@@Z
??0ISceneNavigationSubsystem@@QEAA@XZ
??0IconsManager@@QEAA@$$QEAV0@@Z
??0IconsManager@@QEAA@AEBV0@@Z
??0IconsManager@@QEAA@XZ
??0InputActionMap@@QEAA@$$QEAV0@@Z
??0InputActionMap@@QEAA@AEBV0@@Z
??0InputActionMap@@QEAA@XZ
??0InputGlyphAtlas@@QEAA@$$QEAV0@@Z
??0InputGlyphAtlas@@QEAA@AEBV0@@Z
??0InputGlyphAtlas@@QEAA@XZ
??0InteractionComponent@@QEAA@$$QEAV0@@Z
??0InteractionComponent@@QEAA@AEBV0@@Z
??0InteractionComponent@@QEAA@XZ
??0JsonMigrationRegistry@@QEAA@$$QEAV0@@Z
??0JsonMigrationRegistry@@QEAA@AEBV0@@Z
??0JsonMigrationRegistry@@QEAA@V?$basic_string@DU?$char_traits@D@std@@V?$allocator@D@2@@std@@I@Z
??0Layer@@QEAA@AEBV0@@Z
??0Layer@@QEAA@V?$basic_string@DU?$char_traits@D@std@@V?$allocator@D@2@@std@@@Z
??0LayerStack@@QEAA@AEBV0@@Z
??0LayerStack@@QEAA@XZ
??0LightComponent@@QEAA@$$QEAV0@@Z
??0LightComponent@@QEAA@AEBV0@@Z
??0LightComponent@@QEAA@XZ
??0LightingProbeAsset@@QEAA@AEBV?$basic_string@DU?$char_traits@D@std@@V?$allocator@D@2@@std@@@Z
??0LinearAllocator@@QEAA@XZ
??0MaterialResourceCache@@QEAA@PEAVIRHIDevice@@@Z
??0MemoryService@@AEAA@XZ
??0MeshAsset@@QEAA@AEBV?$basic_string@DU?$char_traits@D@std@@V?$allocator@D@2@@std@@@Z
??0MeshRendererComponent@@QEAA@$$QEAV0@@Z
??0MeshRendererComponent@@QEAA@AEBV0@@Z
??0MeshRendererComponent@@QEAA@XZ
??0ModernDeferredPipeline@@QEAA@AEBV0@@Z
??0ModernDeferredPipeline@@QEAA@PEAVIRHIDevice@@PEAVIRHIReadbackService@@@Z
??0MountedFileSystem@@QEAA@$$QEAV0@@Z
??0MountedFileSystem@@QEAA@AEBV0@@Z
??0MountedFileSystem@@QEAA@XZ
??0NavAgentComponent@@QEAA@$$QEAV0@@Z
??0NavAgentComponent@@QEAA@AEBV0@@Z
??0NavAgentComponent@@QEAA@XZ
??0NavigationWorld@@QEAA@$$QEAV0@@Z
??0NavigationWorld@@QEAA@AEBV0@@Z
??0NavigationWorld@@QEAA@XZ
??0PackageRootFileSystem@@QEAA@$$QEAV0@@Z
??0PackageRootFileSystem@@QEAA@AEBV0@@Z
??0PackageRootFileSystem@@QEAA@Vpath@filesystem@std@@@Z
??0PakFileSystem@@QEAA@$$QEAV0@@Z
??0PakFileSystem@@QEAA@AEBV0@@Z
??0PakFileSystem@@QEAA@V?$shared_ptr@VContentArchiveReader@@@std@@@Z
??0ParticleSystemComponent@@QEAA@$$QEAV0@@Z
??0ParticleSystemComponent@@QEAA@AEBV0@@Z
??0ParticleSystemComponent@@QEAA@XZ
??0PostProcessComponent@@QEAA@$$QEAV0@@Z
??0PostProcessComponent@@QEAA@AEBV0@@Z
??0PostProcessComponent@@QEAA@XZ
??0PrefabAsset@@QEAA@$$QEAU0@@Z
??0PrefabAsset@@QEAA@AEBU0@@Z
??0PrefabAsset@@QEAA@XZ
??0ProbeBakeRenderer@@QEAA@PEAVIRHIDevice@@PEAVIRHIFrameContext@@PEAVIRHIReadbackService@@@Z
??0ProbeLightingSystem@@QEAA@$$QEAV0@@Z
??0ProbeLightingSystem@@QEAA@AEBV0@@Z
??0ProbeLightingSystem@@QEAA@PEAVIRHIDevice@@@Z
??0ProjectConfig@@QEAA@$$QEAV0@@Z
??0ProjectConfig@@QEAA@AEBV0@@Z
??0ProjectConfig@@QEAA@XZ
??0RHIConformanceReport@@QEAA@$$QEAU0@@Z
??0RHIConformanceReport@@QEAA@AEBU0@@Z
??0RHIConformanceReport@@QEAA@XZ
??0ReflectionProbeComponent@@QEAA@$$QEAV0@@Z
??0ReflectionProbeComponent@@QEAA@AEBV0@@Z
??0ReflectionProbeComponent@@QEAA@XZ
??0RenderGraph@@QEAA@$$QEAV0@@Z
??0RenderGraph@@QEAA@AEAVIRHIDevice@@@Z
??0RenderGraph@@QEAA@AEBV0@@Z
??0RenderGraphBuilder@@AEAA@AEAV?$vector@UAccess@RenderGraphBuilder@@V?$allocator@UAccess@RenderGraphBuilder@@@std@@@std@@AEAV?$vector@UBufferAccess@RenderGraphBuilder@@V?$allocator@UBufferAccess@RenderGraphBuilder@@@std@@@2@AEAV?$vector@UAccelerationStructureAccess@RenderGraphBuilder@@V?$allocator@UAccelerationStructureAccess@RenderGraphBuilder@@@std@@@2@@Z
??0RenderGraphResources@@AEAA@AEBVRenderGraph@@@Z
??0RenderPass@@QEAA@AEBV0@@Z
??0RenderPass@@QEAA@PEAVIRHIDevice@@PEAVIRHIReadbackService@@@Z
??0RenderViewport@@QEAA@PEAVIRHIDevice@@PEAVIRHIFrameContext@@PEAVIRHIReadbackService@@@Z
??0Renderer@@QEAA@PEAVIRHIDevice@@PEAVIRHIFrameContext@@PEAVIRHIReadbackService@@@Z
??0ResolvedMaterial@@QEAA@$$QEAU0@@Z
??0ResolvedMaterial@@QEAA@AEBU0@@Z
??0ResolvedMaterial@@QEAA@XZ
??0RigidBodyComponent@@QEAA@$$QEAV0@@Z
??0RigidBodyComponent@@QEAA@AEBV0@@Z
??0RigidBodyComponent@@QEAA@XZ
??0RuntimeDependencyManifest@@QEAA@$$QEAU0@@Z
??0RuntimeDependencyManifest@@QEAA@AEBU0@@Z
??0RuntimeDependencyManifest@@QEAA@XZ
??0RuntimePerformanceGate@@QEAA@$$QEAV0@@Z
??0RuntimePerformanceGate@@QEAA@AEBV0@@Z
??0RuntimePerformanceGate@@QEAA@URuntimePerformanceBudget@@@Z
??0RuntimePerformanceProfile@@QEAA@$$QEAU0@@Z
??0RuntimePerformanceProfile@@QEAA@AEBU0@@Z
??0RuntimePerformanceProfile@@QEAA@XZ
??0RuntimePerformanceReport@@QEAA@$$QEAU0@@Z
??0RuntimePerformanceReport@@QEAA@AEBU0@@Z
??0RuntimePerformanceReport@@QEAA@XZ
??0RuntimeResourceBudgetController@@QEAA@$$QEAV0@@Z
??0RuntimeResourceBudgetController@@QEAA@AEBV0@@Z
??0RuntimeResourceBudgetController@@QEAA@XZ
??0RuntimeUIScreenConfig@@QEAA@$$QEAV0@@Z
??0RuntimeUIScreenConfig@@QEAA@AEBV0@@Z
??0RuntimeUIScreenConfig@@QEAA@XZ
??0RuntimeUIScreenStack@@QEAA@$$QEAV0@@Z
??0RuntimeUIScreenStack@@QEAA@AEBV0@@Z
??0RuntimeUIScreenStack@@QEAA@XZ
??0SHProbeVolumeComponent@@QEAA@$$QEAV0@@Z
??0SHProbeVolumeComponent@@QEAA@AEBV0@@Z
??0SHProbeVolumeComponent@@QEAA@XZ
??0Scene@@QEAA@V?$basic_string@DU?$char_traits@D@std@@V?$allocator@D@2@@std@@@Z
??0SceneLayer@@QEAA@AEBV?$basic_string@DU?$char_traits@D@std@@V?$allocator@D@2@@std@@@Z
??0SceneManager@@QEAA@XZ
??0SceneRenderLayer@@QEAA@PEAVIRHIContext@@HH@Z
??0SceneViewport@@QEAA@PEAVIRHIDevice@@PEAVIRHIFrameContext@@PEAVIRHIReadbackService@@@Z
??0ScriptComponent@@QEAA@XZ
??0Sha256@@QEAA@XZ
??0ShaderAsset@@QEAA@AEBV?$basic_string@DU?$char_traits@D@std@@V?$allocator@D@2@@std@@@Z
??0ShaderCacheService@@QEAA@XZ
??0ShaderManager@@QEAA@$$QEAV0@@Z
??0ShaderManager@@QEAA@XZ
??0SkinnedMeshRendererComponent@@QEAA@$$QEAV0@@Z
??0SkinnedMeshRendererComponent@@QEAA@AEBV0@@Z
??0SkinnedMeshRendererComponent@@QEAA@XZ
??0SkylightComponent@@QEAA@$$QEAV0@@Z
??0SkylightComponent@@QEAA@AEBV0@@Z
??0SkylightComponent@@QEAA@XZ
??0SphereColliderComponent@@QEAA@$$QEAV0@@Z
??0SphereColliderComponent@@QEAA@AEBV0@@Z
??0SphereColliderComponent@@QEAA@XZ
??0SubtitleSystem@@QEAA@$$QEAV0@@Z
??0SubtitleSystem@@QEAA@AEBV0@@Z
??0SubtitleSystem@@QEAA@XZ
??0TaskScope@@QEAA@XZ
??0TaskService@@QEAA@_K@Z
??0TextureAsset@@QEAA@AEBV?$basic_string@DU?$char_traits@D@std@@V?$allocator@D@2@@std@@@Z
??0ThirdPersonCameraComponent@@QEAA@$$QEAV0@@Z
??0ThirdPersonCameraComponent@@QEAA@AEBV0@@Z
??0ThirdPersonCameraComponent@@QEAA@XZ
??0TypeRegistry@@QEAA@$$QEAV0@@Z
??0TypeRegistry@@QEAA@AEBV0@@Z
??0TypeRegistry@@QEAA@XZ
??0UIButtonComponent@@QEAA@$$QEAV0@@Z
??0UIButtonComponent@@QEAA@AEBV0@@Z
??0UIButtonComponent@@QEAA@XZ
??0UICanvas@@QEAA@XZ
??0UICanvasComponent@@QEAA@XZ
??0UIElementComponent@@QEAA@$$QEAV0@@Z
??0UIElementComponent@@QEAA@AEBV0@@Z
??0UIElementComponent@@QEAA@XZ
??0UIEventBridge@@QEAA@$$QEAV0@@Z
??0UIEventBridge@@QEAA@AEBV0@@Z
??0UIEventBridge@@QEAA@XZ
??0UIGridLayoutComponent@@QEAA@$$QEAV0@@Z
??0UIGridLayoutComponent@@QEAA@AEBV0@@Z
??0UIGridLayoutComponent@@QEAA@XZ
??0UIImageComponent@@QEAA@$$QEAV0@@Z
??0UIImageComponent@@QEAA@AEBV0@@Z
??0UIImageComponent@@QEAA@XZ
??0UILayoutGroupComponent@@QEAA@$$QEAV0@@Z
??0UILayoutGroupComponent@@QEAA@AEBV0@@Z
??0UILayoutGroupComponent@@QEAA@XZ
??0UIProgressBarComponent@@QEAA@$$QEAV0@@Z
??0UIProgressBarComponent@@QEAA@AEBV0@@Z
??0UIProgressBarComponent@@QEAA@XZ
??0UIRectTransformComponent@@QEAA@$$QEAV0@@Z
??0UIRectTransformComponent@@QEAA@AEBV0@@Z
??0UIRectTransformComponent@@QEAA@XZ
??0UIScrollViewComponent@@QEAA@$$QEAV0@@Z
??0UIScrollViewComponent@@QEAA@AEBV0@@Z
??0UIScrollViewComponent@@QEAA@XZ
??0UISliderComponent@@QEAA@$$QEAV0@@Z
??0UISliderComponent@@QEAA@AEBV0@@Z
??0UISliderComponent@@QEAA@XZ
??0UISystem@@QEAA@XZ
??0UITextComponent@@QEAA@$$QEAV0@@Z
??0UITextComponent@@QEAA@AEBV0@@Z
??0UITextComponent@@QEAA@XZ
??0WorldFrameScheduler@@QEAA@$$QEAV0@@Z
??0WorldFrameScheduler@@QEAA@AEBV0@@Z
??0WorldFrameScheduler@@QEAA@_N0@Z
??0WorldZoneStreamer@@QEAA@XZ
??1Actor@@QEAA@XZ
??1AngelScriptRuntime@@QEAA@XZ
??1AnimatorComponent@@UEAA@XZ
??1AnimatorController@@QEAA@XZ
??1Application@@UEAA@XZ
??1Asset@@UEAA@XZ
??1AssetDatabase@@QEAA@XZ
??1AssetDatabaseValidationReport@@QEAA@XZ
??1AssetManager@@QEAA@XZ
??1AssetMeta@@QEAA@XZ
??1AudioEngine@@AEAA@XZ
??1AudioListenerComponent@@UEAA@XZ
??1AudioSourceComponent@@UEAA@XZ
??1BoxColliderComponent@@UEAA@XZ
??1CameraComponent@@UEAA@XZ
??1CapsuleColliderComponent@@UEAA@XZ
??1CharacterControllerComponent@@UEAA@XZ
??1ColliderComponent@@UEAA@XZ
??1Component@@UEAA@XZ
??1ContentArchiveReader@@QEAA@XZ
??1CookManifest@@QEAA@XZ
??1DebugDrawPass@@UEAA@XZ
??1DebugDrawService@@AEAA@XZ
??1DeferredLightingPass@@UEAA@XZ
??1EnemyAIComponent@@UEAA@XZ
??1Engine@@QEAA@XZ
??1GBufferPass@@UEAA@XZ
??1GameFlowController@@QEAA@XZ
??1GameViewport@@UEAA@XZ
??1GameplayFeedbackComponent@@UEAA@XZ
??1GpuResource@@UEAA@XZ
??1GpuSceneDatabase@@QEAA@XZ
??1HealthComponent@@UEAA@XZ
??1HitboxComponent@@UEAA@XZ
??1HurtboxComponent@@UEAA@XZ
??1IReadOnlyFileSystem@@UEAA@XZ
??1ISceneNavigationSubsystem@@UEAA@XZ
??1IconsManager@@QEAA@XZ
??1InputActionMap@@QEAA@XZ
??1InputGlyphAtlas@@QEAA@XZ
??1InteractionComponent@@UEAA@XZ
??1JsonMigrationRegistry@@QEAA@XZ
??1Layer@@UEAA@XZ
??1LayerStack@@QEAA@XZ
??1LightComponent@@UEAA@XZ
??1LightingProbeAsset@@UEAA@XZ
??1LinearAllocator@@QEAA@XZ
??1MaterialResourceCache@@QEAA@XZ
??1MemoryService@@QEAA@XZ
??1MeshAsset@@UEAA@XZ
??1MeshRendererComponent@@UEAA@XZ
??1ModernDeferredPipeline@@QEAA@XZ
??1MountedFileSystem@@UEAA@XZ
??1NavAgentComponent@@UEAA@XZ
??1NavigationWorld@@UEAA@XZ
??1PackageRootFileSystem@@UEAA@XZ
??1PakFileSystem@@UEAA@XZ
??1ParticleSystemComponent@@UEAA@XZ
??1PostProcessComponent@@UEAA@XZ
??1PrefabAsset@@QEAA@XZ
??1ProbeLightingSystem@@QEAA@XZ
??1ProjectConfig@@QEAA@XZ
??1RHIConformanceReport@@QEAA@XZ
??1ReflectionProbeComponent@@UEAA@XZ
??1RenderGraph@@QEAA@XZ
??1RenderPass@@UEAA@XZ
??1RenderViewport@@UEAA@XZ
??1Renderer@@QEAA@XZ
??1ResolvedMaterial@@QEAA@XZ
??1RigidBodyComponent@@UEAA@XZ
??1RuntimeDependencyManifest@@QEAA@XZ
??1RuntimePerformanceGate@@QEAA@XZ
??1RuntimePerformanceProfile@@QEAA@XZ
??1RuntimePerformanceReport@@QEAA@XZ
??1RuntimeResourceBudgetController@@QEAA@XZ
??1RuntimeUIScreenConfig@@QEAA@XZ
??1RuntimeUIScreenStack@@QEAA@XZ
??1SHProbeVolumeComponent@@UEAA@XZ
??1Scene@@QEAA@XZ
??1SceneLayer@@UEAA@XZ
??1SceneManager@@QEAA@XZ
??1SceneRenderLayer@@UEAA@XZ
??1SceneViewport@@UEAA@XZ
??1ScriptComponent@@UEAA@XZ
??1ShaderAsset@@UEAA@XZ
??1ShaderCacheService@@QEAA@XZ
??1ShaderManager@@QEAA@XZ
??1SkinnedMeshRendererComponent@@UEAA@XZ
??1SkylightComponent@@UEAA@XZ
??1SphereColliderComponent@@UEAA@XZ
??1SubtitleSystem@@QEAA@XZ
??1TaskScope@@QEAA@XZ
??1TaskService@@QEAA@XZ
??1TextureAsset@@UEAA@XZ
??1ThirdPersonCameraComponent@@UEAA@XZ
??1TypeRegistry@@QEAA@XZ
??1UIButtonComponent@@UEAA@XZ
??1UICanvas@@QEAA@XZ
??1UICanvasComponent@@UEAA@XZ
??1UIElementComponent@@UEAA@XZ
??1UIEventBridge@@QEAA@XZ
??1UIGridLayoutComponent@@UEAA@XZ
??1UIImageComponent@@UEAA@XZ
??1UILayoutGroupComponent@@UEAA@XZ
??1UIProgressBarComponent@@UEAA@XZ
??1UIRectTransformComponent@@UEAA@XZ
??1UIScrollViewComponent@@UEAA@XZ
??1UISliderComponent@@UEAA@XZ
??1UISystem@@QEAA@XZ
??1UITextComponent@@UEAA@XZ
??1WorldFrameScheduler@@QEAA@XZ
??1WorldZoneStreamer@@QEAA@XZ
??4Actor@@QEAAAEAV0@$$QEAV0@@Z
??4ActorSubtreeSerializer@@QEAAAEAV0@$$QEAV0@@Z
??4ActorSubtreeSerializer@@QEAAAEAV0@AEBV0@@Z
??4AnimatorComponent@@QEAAAEAV0@$$QEAV0@@Z
??4AnimatorComponent@@QEAAAEAV0@AEBV0@@Z
??4AnimatorController@@QEAAAEAV0@$$QEAV0@@Z
??4AnimatorController@@QEAAAEAV0@AEBV0@@Z
??4AssetDatabase@@QEAAAEAV0@$$QEAV0@@Z
??4AssetDatabase@@QEAAAEAV0@AEBV0@@Z
??4AssetDatabaseValidationReport@@QEAAAEAU0@$$QEAU0@@Z
??4AssetDatabaseValidationReport@@QEAAAEAU0@AEBU0@@Z
??4AssetMeta@@QEAAAEAU0@$$QEAU0@@Z
??4AssetMeta@@QEAAAEAU0@AEBU0@@Z
??4AudioListenerComponent@@QEAAAEAV0@$$QEAV0@@Z
??4AudioListenerComponent@@QEAAAEAV0@AEBV0@@Z
??4AudioSourceComponent@@QEAAAEAV0@$$QEAV0@@Z
??4AudioSourceComponent@@QEAAAEAV0@AEBV0@@Z
??4BoxColliderComponent@@QEAAAEAV0@$$QEAV0@@Z
??4BoxColliderComponent@@QEAAAEAV0@AEBV0@@Z
??4Camera@@QEAAAEAV0@$$QEAV0@@Z
??4Camera@@QEAAAEAV0@AEBV0@@Z
??4CameraComponent@@QEAAAEAV0@$$QEAV0@@Z
??4CameraComponent@@QEAAAEAV0@AEBV0@@Z
??4CapsuleColliderComponent@@QEAAAEAV0@$$QEAV0@@Z
??4CapsuleColliderComponent@@QEAAAEAV0@AEBV0@@Z
??4CharacterControllerComponent@@QEAAAEAV0@$$QEAV0@@Z
??4CharacterControllerComponent@@QEAAAEAV0@AEBV0@@Z
??4ColliderComponent@@QEAAAEAV0@$$QEAV0@@Z
??4ColliderComponent@@QEAAAEAV0@AEBV0@@Z
??4Component@@QEAAAEAV0@AEBV0@@Z
??4ComponentRegistry@@QEAAAEAV0@$$QEAV0@@Z
??4ComponentRegistry@@QEAAAEAV0@AEBV0@@Z
??4ContentArchive@@QEAAAEAV0@$$QEAV0@@Z
??4ContentArchive@@QEAAAEAV0@AEBV0@@Z
??4ContentArchiveReader@@QEAAAEAV0@$$QEAV0@@Z
??4ContentArchiveReader@@QEAAAEAV0@AEBV0@@Z
??4ContentPathPolicy@@QEAAAEAV0@$$QEAV0@@Z
??4ContentPathPolicy@@QEAAAEAV0@AEBV0@@Z
??4CookManifest@@QEAAAEAU0@$$QEAU0@@Z
??4CookManifest@@QEAAAEAU0@AEBU0@@Z
??4CookedProjectCache@@QEAAAEAV0@$$QEAV0@@Z
??4CookedProjectCache@@QEAAAEAV0@AEBV0@@Z
??4CrashHandler@@QEAAAEAV0@$$QEAV0@@Z
??4CrashHandler@@QEAAAEAV0@AEBV0@@Z
??4DefaultSceneFactory@@QEAAAEAV0@$$QEAV0@@Z
??4DefaultSceneFactory@@QEAAAEAV0@AEBV0@@Z
??4DeferredLightingPass@@QEAAAEAV0@$$QEAV0@@Z
??4DeferredLightingPass@@QEAAAEAV0@AEBV0@@Z
??4EnemyAIComponent@@QEAAAEAV0@$$QEAV0@@Z
??4EnemyAIComponent@@QEAAAEAV0@AEBV0@@Z
??4Engine@@QEAAAEAV0@$$QEAV0@@Z
??4Engine@@QEAAAEAV0@AEBV0@@Z
??4FrameStatsProvider@@QEAAAEAV0@$$QEAV0@@Z
??4FrameStatsProvider@@QEAAAEAV0@AEBV0@@Z
??4GameFlowController@@QEAAAEAV0@AEBV0@@Z
??4GameplayFeedbackComponent@@QEAAAEAV0@$$QEAV0@@Z
??4GameplayFeedbackComponent@@QEAAAEAV0@AEBV0@@Z
??4HealthComponent@@QEAAAEAV0@$$QEAV0@@Z
??4HealthComponent@@QEAAAEAV0@AEBV0@@Z
??4HitboxComponent@@QEAAAEAV0@$$QEAV0@@Z
??4HitboxComponent@@QEAAAEAV0@AEBV0@@Z
??4HurtboxComponent@@QEAAAEAV0@$$QEAV0@@Z
??4HurtboxComponent@@QEAAAEAV0@AEBV0@@Z
??4IReadOnlyFileSystem@@QEAAAEAV0@AEBV0@@Z
??4ISceneNavigationSubsystem@@QEAAAEAV0@AEBV0@@Z
??4IconsManager@@QEAAAEAV0@$$QEAV0@@Z
??4IconsManager@@QEAAAEAV0@AEBV0@@Z
??4Input@@QEAAAEAV0@$$QEAV0@@Z
??4Input@@QEAAAEAV0@AEBV0@@Z
??4InputActionMap@@QEAAAEAV0@$$QEAV0@@Z
??4InputActionMap@@QEAAAEAV0@AEBV0@@Z
??4InputGlyphAtlas@@QEAAAEAV0@$$QEAV0@@Z
??4InputGlyphAtlas@@QEAAAEAV0@AEBV0@@Z
??4InteractionComponent@@QEAAAEAV0@$$QEAV0@@Z
??4InteractionComponent@@QEAAAEAV0@AEBV0@@Z
??4JsonMigrationRegistry@@QEAAAEAV0@$$QEAV0@@Z
??4JsonMigrationRegistry@@QEAAAEAV0@AEBV0@@Z
??4Layer@@QEAAAEAV0@AEBV0@@Z
??4LayerStack@@QEAAAEAV0@AEBV0@@Z
??4LightComponent@@QEAAAEAV0@$$QEAV0@@Z
??4LightComponent@@QEAAAEAV0@AEBV0@@Z
??4Logger@@QEAAAEAV0@$$QEAV0@@Z
??4Logger@@QEAAAEAV0@AEBV0@@Z
??4MaterialSystem@@QEAAAEAV0@$$QEAV0@@Z
??4MaterialSystem@@QEAAAEAV0@AEBV0@@Z
??4MeshRendererComponent@@QEAAAEAV0@$$QEAV0@@Z
??4MeshRendererComponent@@QEAAAEAV0@AEBV0@@Z
??4ModernDeferredPipeline@@QEAAAEAV0@AEBV0@@Z
??4MountedFileSystem@@QEAAAEAV0@$$QEAV0@@Z
??4MountedFileSystem@@QEAAAEAV0@AEBV0@@Z
??4NavAgentComponent@@QEAAAEAV0@$$QEAV0@@Z
??4NavAgentComponent@@QEAAAEAV0@AEBV0@@Z
??4NavigationWorld@@QEAAAEAV0@$$QEAV0@@Z
??4NavigationWorld@@QEAAAEAV0@AEBV0@@Z
??4PackageRootFileSystem@@QEAAAEAV0@$$QEAV0@@Z
??4PackageRootFileSystem@@QEAAAEAV0@AEBV0@@Z
??4PakFileSystem@@QEAAAEAV0@$$QEAV0@@Z
??4PakFileSystem@@QEAAAEAV0@AEBV0@@Z
??4ParticleSystemComponent@@QEAAAEAV0@$$QEAV0@@Z
??4ParticleSystemComponent@@QEAAAEAV0@AEBV0@@Z
??4PostProcessComponent@@QEAAAEAV0@$$QEAV0@@Z
??4PostProcessComponent@@QEAAAEAV0@AEBV0@@Z
??4PrefabAsset@@QEAAAEAU0@$$QEAU0@@Z
??4PrefabAsset@@QEAAAEAU0@AEBU0@@Z
??4PrefabSystem@@QEAAAEAV0@$$QEAV0@@Z
??4PrefabSystem@@QEAAAEAV0@AEBV0@@Z
??4ProbeBakeRenderer@@QEAAAEAV0@$$QEAV0@@Z
??4ProbeBakeRenderer@@QEAAAEAV0@AEBV0@@Z
??4ProbeLightingSystem@@QEAAAEAV0@$$QEAV0@@Z
??4ProbeLightingSystem@@QEAAAEAV0@AEBV0@@Z
??4ProjectConfig@@QEAAAEAV0@$$QEAV0@@Z
??4ProjectConfig@@QEAAAEAV0@AEBV0@@Z
??4RHIConformanceReport@@QEAAAEAU0@$$QEAU0@@Z
??4RHIConformanceReport@@QEAAAEAU0@AEBU0@@Z
??4RHIResourceStatsProvider@@QEAAAEAV0@$$QEAV0@@Z
??4RHIResourceStatsProvider@@QEAAAEAV0@AEBV0@@Z
??4ReflectionProbeComponent@@QEAAAEAV0@$$QEAV0@@Z
??4ReflectionProbeComponent@@QEAAAEAV0@AEBV0@@Z
??4RenderPass@@QEAAAEAV0@AEBV0@@Z
??4ResolvedMaterial@@QEAAAEAU0@$$QEAU0@@Z
??4ResolvedMaterial@@QEAAAEAU0@AEBU0@@Z
??4RigidBodyComponent@@QEAAAEAV0@$$QEAV0@@Z
??4RigidBodyComponent@@QEAAAEAV0@AEBV0@@Z
??4RuntimeAccessibility@@QEAAAEAV0@$$QEAV0@@Z
??4RuntimeAccessibility@@QEAAAEAV0@AEBV0@@Z
??4RuntimeDependencyManifest@@QEAAAEAU0@$$QEAU0@@Z
??4RuntimeDependencyManifest@@QEAAAEAU0@AEBU0@@Z
??4RuntimeFileSystem@@QEAAAEAV0@$$QEAV0@@Z
??4RuntimeFileSystem@@QEAAAEAV0@AEBV0@@Z
??4RuntimePerformanceGate@@QEAAAEAV0@$$QEAV0@@Z
??4RuntimePerformanceGate@@QEAAAEAV0@AEBV0@@Z
??4RuntimePerformanceProfile@@QEAAAEAU0@$$QEAU0@@Z
??4RuntimePerformanceProfile@@QEAAAEAU0@AEBU0@@Z
??4RuntimePerformanceReport@@QEAAAEAU0@$$QEAU0@@Z
??4RuntimePerformanceReport@@QEAAAEAU0@AEBU0@@Z
??4RuntimeQualityDegradation@@QEAAAEAV0@$$QEAV0@@Z
??4RuntimeQualityDegradation@@QEAAAEAV0@AEBV0@@Z
??4RuntimeResourceBudgetController@@QEAAAEAV0@$$QEAV0@@Z
??4RuntimeResourceBudgetController@@QEAAAEAV0@AEBV0@@Z
??4RuntimeUIScreenConfig@@QEAAAEAV0@$$QEAV0@@Z
??4RuntimeUIScreenConfig@@QEAAAEAV0@AEBV0@@Z
??4RuntimeUIScreenStack@@QEAAAEAV0@$$QEAV0@@Z
??4RuntimeUIScreenStack@@QEAAAEAV0@AEBV0@@Z
??4RuntimeUserSettingsStore@@QEAAAEAV0@$$QEAV0@@Z
??4RuntimeUserSettingsStore@@QEAAAEAV0@AEBV0@@Z
??4SHProbeVolumeComponent@@QEAAAEAV0@$$QEAV0@@Z
??4SHProbeVolumeComponent@@QEAAAEAV0@AEBV0@@Z
??4SaveGame@@QEAAAEAV0@$$QEAV0@@Z
??4SaveGame@@QEAAAEAV0@AEBV0@@Z
??4SceneRenderCollector@@QEAAAEAV0@$$QEAV0@@Z
??4SceneRenderCollector@@QEAAAEAV0@AEBV0@@Z
??4SceneSerializer@@QEAAAEAV0@$$QEAV0@@Z
??4SceneSerializer@@QEAAAEAV0@AEBV0@@Z
??4ScriptProfiler@@QEAAAEAV0@$$QEAV0@@Z
??4ScriptProfiler@@QEAAAEAV0@AEBV0@@Z
??4Sha256@@QEAAAEAV0@$$QEAV0@@Z
??4Sha256@@QEAAAEAV0@AEBV0@@Z
??4ShaderCompilerSlang@@QEAAAEAV0@$$QEAV0@@Z
??4ShaderCompilerSlang@@QEAAAEAV0@AEBV0@@Z
??4ShaderManager@@QEAAAEAV0@$$QEAV0@@Z
??4SkinnedMeshRendererComponent@@QEAAAEAV0@$$QEAV0@@Z
??4SkinnedMeshRendererComponent@@QEAAAEAV0@AEBV0@@Z
??4SkylightComponent@@QEAAAEAV0@$$QEAV0@@Z
??4SkylightComponent@@QEAAAEAV0@AEBV0@@Z
??4SphereColliderComponent@@QEAAAEAV0@$$QEAV0@@Z
??4SphereColliderComponent@@QEAAAEAV0@AEBV0@@Z
??4SubtitleSystem@@QEAAAEAV0@$$QEAV0@@Z
??4SubtitleSystem@@QEAAAEAV0@AEBV0@@Z
??4ThirdPersonCameraComponent@@QEAAAEAV0@$$QEAV0@@Z
??4ThirdPersonCameraComponent@@QEAAAEAV0@AEBV0@@Z
??4TransactionalFileWriter@@QEAAAEAV0@$$QEAV0@@Z
??4TransactionalFileWriter@@QEAAAEAV0@AEBV0@@Z
??4TypeRegistry@@QEAAAEAV0@$$QEAV0@@Z
??4TypeRegistry@@QEAAAEAV0@AEBV0@@Z
??4UIActorTreeBuilder@@QEAAAEAV0@$$QEAV0@@Z
??4UIActorTreeBuilder@@QEAAAEAV0@AEBV0@@Z
??4UIButtonComponent@@QEAAAEAV0@$$QEAV0@@Z
??4UIButtonComponent@@QEAAAEAV0@AEBV0@@Z
??4UIElementComponent@@QEAAAEAV0@$$QEAV0@@Z
??4UIElementComponent@@QEAAAEAV0@AEBV0@@Z
??4UIEventBridge@@QEAAAEAV0@$$QEAV0@@Z
??4UIEventBridge@@QEAAAEAV0@AEBV0@@Z
??4UIGridLayoutComponent@@QEAAAEAV0@$$QEAV0@@Z
??4UIGridLayoutComponent@@QEAAAEAV0@AEBV0@@Z
??4UIImageComponent@@QEAAAEAV0@$$QEAV0@@Z
??4UIImageComponent@@QEAAAEAV0@AEBV0@@Z
??4UILayoutGroupComponent@@QEAAAEAV0@$$QEAV0@@Z
??4UILayoutGroupComponent@@QEAAAEAV0@AEBV0@@Z
??4UIProgressBarComponent@@QEAAAEAV0@$$QEAV0@@Z
??4UIProgressBarComponent@@QEAAAEAV0@AEBV0@@Z
??4UIRectTransformComponent@@QEAAAEAV0@$$QEAV0@@Z
??4UIRectTransformComponent@@QEAAAEAV0@AEBV0@@Z
??4UIScrollViewComponent@@QEAAAEAV0@$$QEAV0@@Z
??4UIScrollViewComponent@@QEAAAEAV0@AEBV0@@Z
??4UISliderComponent@@QEAAAEAV0@$$QEAV0@@Z
??4UISliderComponent@@QEAAAEAV0@AEBV0@@Z
??4UITextComponent@@QEAAAEAV0@$$QEAV0@@Z
??4UITextComponent@@QEAAAEAV0@AEBV0@@Z
??4WindowsRuntimeDependencyCollector@@QEAAAEAV0@$$QEAV0@@Z
??4WindowsRuntimeDependencyCollector@@QEAAAEAV0@AEBV0@@Z
??4WorldFrameScheduler@@QEAAAEAV0@$$QEAV0@@Z
??4WorldFrameScheduler@@QEAAAEAV0@AEBV0@@Z
??_7AnimatorComponent@@6B@
??_7Application@@6B@
??_7Asset@@6B@
??_7AudioListenerComponent@@6B@
??_7AudioSourceComponent@@6B@
??_7BoxColliderComponent@@6B@
??_7CameraComponent@@6B@
??_7CapsuleColliderComponent@@6B@
??_7CharacterControllerComponent@@6B@
??_7ColliderComponent@@6B@
??_7Component@@6B@
??_7DebugDrawPass@@6B@
??_7DeferredLightingPass@@6B@
??_7EnemyAIComponent@@6B@
??_7GBufferPass@@6B@
??_7GameViewport@@6B@
??_7GameplayFeedbackComponent@@6B@
??_7GpuResource@@6B@
??_7HealthComponent@@6B@
??_7HitboxComponent@@6B@
??_7HurtboxComponent@@6B@
??_7IReadOnlyFileSystem@@6B@
??_7ISceneNavigationSubsystem@@6B@
??_7InteractionComponent@@6B@
??_7Layer@@6B@
??_7LightComponent@@6B@
??_7LightingProbeAsset@@6B@
??_7MeshAsset@@6B@
??_7MeshRendererComponent@@6B@
??_7MountedFileSystem@@6B@
??_7NavAgentComponent@@6B@
??_7NavigationWorld@@6B@
??_7PackageRootFileSystem@@6B@
??_7PakFileSystem@@6B@
??_7ParticleSystemComponent@@6B@
??_7PostProcessComponent@@6B@
??_7ReflectionProbeComponent@@6B@
??_7RenderPass@@6B@
??_7RenderViewport@@6B@
??_7RigidBodyComponent@@6B@
??_7SHProbeVolumeComponent@@6B@
??_7SceneLayer@@6B@
??_7SceneRenderLayer@@6B@
??_7SceneViewport@@6B@
??_7ScriptComponent@@6B@
??_7ShaderAsset@@6B@
??_7SkinnedMeshRendererComponent@@6B@
??_7SkylightComponent@@6B@
??_7SphereColliderComponent@@6B@
??_7TextureAsset@@6B@
??_7ThirdPersonCameraComponent@@6B@
??_7UIButtonComponent@@6B@
??_7UICanvasComponent@@6B@
??_7UIElementComponent@@6B@
??_7UIGridLayoutComponent@@6B@
??_7UIImageComponent@@6B@
??_7UILayoutGroupComponent@@6B@
??_7UIProgressBarComponent@@6B@
??_7UIRectTransformComponent@@6B@
??_7UIScrollViewComponent@@6B@
??_7UISliderComponent@@6B@
??_7UITextComponent@@6B@
??_FApplication@@QEAAXXZ
??_FGpuSceneDatabase@@QEAAXXZ
??_FMaterialResourceCache@@QEAAXXZ
??_FProbeBakeRenderer@@QEAAXXZ
??_FRuntimePerformanceGate@@QEAAXXZ
??_FScene@@QEAAXXZ
??_FSceneLayer@@QEAAXXZ
??_FTaskService@@QEAAXXZ
??_FWorldFrameScheduler@@QEAAXXZ
?AbortGpuDrivenShadowFrame@ModernDeferredPipeline@@QEAAXXZ
?AbortTemporalFrame@ModernDeferredPipeline@@QEAAXAEBV?$basic_string@DU?$char_traits@D@std@@V?$allocator@D@2@@std@@@Z
?AcquireBindGroup@ModernDeferredPipeline@@AEAA?AV?$shared_ptr@VGpuBindGroup@@@std@@AEBV?$shared_ptr@UGpuShader@@@3@@Z
?AcquirePooledResources@RenderGraph@@AEAAXXZ
?Activate@RuntimeUIScreenStack@@QEAA?AURuntimeUIStackEvent@@_K@Z
?ActivateFocused@RuntimeUIScreenStack@@QEBA?AURuntimeUIStackEvent@@XZ
?ActivateNext@SubtitleSystem@@AEAAXXZ
?ActorCount@Scene@@QEBA_KXZ
?Add@RenderGraphBuilder@@AEAAXUAccess@1@@Z
?AddAccelerationStructurePass@RenderGraph@@QEAAXAEBV?$basic_string@DU?$char_traits@D@std@@V?$allocator@D@2@@std@@V?$function@$$A6AXAEAVRenderGraphBuilder@@@Z@3@V?$function@$$A6AXAEAVGpuCommandList@@AEBVRenderGraphResources@@@Z@3@W4PassFlags@1@@Z
?AddAngularImpulse@RigidBodyComponent@@QEAAXAEBUVec3@Math@@@Z
?AddBuffer@RHIResourceStatsProvider@@SAX_K@Z
?AddChild@Actor@@AEAAXPEAV1@@Z
?AddClusteredLightingPasses@ModernDeferredPipeline@@QEAA?AURGTextureHandle@@AEAVRenderGraph@@AEBVCamera@@U2@AEBV?$shared_ptr@UGpuTextureView@@@std@@2323232323URGBufferHandle@@AEBV?$shared_ptr@UGpuBufferView@@@6@2@Z
?AddComponentObject@Actor@@AEAAPEAVComponent@@Vtype_index@std@@V?$unique_ptr@VComponent@@U?$default_delete@VComponent@@@std@@@4@_N@Z
?AddComputePass@RenderGraph@@QEAAXAEBV?$basic_string@DU?$char_traits@D@std@@V?$allocator@D@2@@std@@V?$function@$$A6AXAEAVRenderGraphBuilder@@@Z@3@V?$function@$$A6AXAEAVGpuCommandList@@AEBVRenderGraphResources@@@Z@3@W4PassFlags@1@@Z
?AddDepthPrepass@ModernDeferredPipeline@@QEAAXAEAVRenderGraph@@URGTextureHandle@@@Z
?AddDescriptors@RHIResourceStatsProvider@@SAXI@Z
?AddDiagnostic@ScriptComponent@@QEAAXUScriptDiagnostic@@@Z
?AddForce@RigidBodyComponent@@QEAAXAEBUVec3@Math@@@Z
?AddGBufferPass@ModernDeferredPipeline@@QEAAXAEAVRenderGraph@@URGTextureHandle@@11111@Z
?AddGpuDrivenShadowView@ModernDeferredPipeline@@QEAA_NAEAVRenderGraph@@AEBV?$basic_string@DU?$char_traits@D@std@@V?$allocator@D@2@@std@@URGTextureHandle@@URGTextureSubresource@@AEBUMat4@@@Z
?AddHiZOcclusionCulling@ModernDeferredPipeline@@QEAAXAEAVRenderGraph@@URGTextureHandle@@@Z
?AddHiZPasses@ModernDeferredPipeline@@QEAA?AURGTextureHandle@@AEAVRenderGraph@@U2@AEBV?$shared_ptr@UGpuTextureView@@@std@@@Z
?AddImpulse@RigidBodyComponent@@QEAAXAEBUVec3@Math@@@Z
?AddMount@MountedFileSystem@@QEAAXV?$shared_ptr@VIReadOnlyFileSystem@@@std@@@Z
?AddNativeDescriptorSlots@RHIResourceStatsProvider@@SAXW4RHINativeDescriptorKind@@I@Z
?AddOrbit@ThirdPersonCameraComponent@@QEAAXMM@Z
?AddPass@RenderGraph@@QEAAXAEBV?$basic_string@DU?$char_traits@D@std@@V?$allocator@D@2@@std@@V?$function@$$A6AXAEAVRenderGraphBuilder@@@Z@3@V?$function@$$A6AXAEAVGpuCommandList@@AEBVRenderGraphResources@@@Z@3@W4PassFlags@1@@Z
?AddPassInternal@RenderGraph@@AEAAXAEBV?$basic_string@DU?$char_traits@D@std@@V?$allocator@D@2@@std@@V?$function@$$A6AXAEAVRenderGraphBuilder@@@Z@3@V?$function@$$A6AXAEAVGpuCommandList@@AEBVRenderGraphResources@@@Z@3@W4PassFlags@1@W4PassType@1@@Z
?AddPatrolPoint@EnemyAIComponent@@QEAAXAEBUVec3@Math@@@Z
?AddRayTracedShadowPass@ModernDeferredPipeline@@QEAA?AURGTextureHandle@@AEAVRenderGraph@@U2@AEBV?$shared_ptr@UGpuTextureView@@@std@@12@Z
?AddRayTracingBuildPass@ModernDeferredPipeline@@QEAAXAEAVRenderGraph@@@Z
?AddRef@Asset@@AEAAXXZ
?AddSample@RuntimePerformanceGate@@QEAAXURuntimePerformanceSample@@@Z
?AddScreenSpaceEffects@ModernDeferredPipeline@@QEAA?AURGTextureHandle@@AEAVRenderGraph@@U2@AEBV?$shared_ptr@UGpuTextureView@@@std@@1212121212112_NW4ScreenSpaceDebugMode@1@@Z
?AddState@AnimatorController@@QEAA_NUAnimatorState@@@Z
?AddTemporalPostProcess@ModernDeferredPipeline@@QEAA?AURGTextureHandle@@AEAVRenderGraph@@U2@AEBV?$shared_ptr@UGpuTextureView@@@std@@121212W4ScreenSpaceDebugMode@1@@Z
?AddTexture@RHIResourceStatsProvider@@SAX_K@Z
?AddTorque@RigidBodyComponent@@QEAAXAEBUVec3@Math@@@Z
?AdjustRuntimeSetting@SceneRenderLayer@@AEAAXAEBV?$basic_string@DU?$char_traits@D@std@@V?$allocator@D@2@@std@@@Z
?AdoptAssetPins@Scene@@QEAAXV?$vector@V?$basic_string@DU?$char_traits@D@std@@V?$allocator@D@2@@std@@V?$allocator@V?$basic_string@DU?$char_traits@D@std@@V?$allocator@D@2@@std@@@2@@std@@@Z
?AdoptRecordedFrame@RenderGraph@@AEAAXXZ
?Allocate@LinearAllocator@@QEAAPEAX_K0@Z
?Allocate@MemoryService@@QEAAPEAXW4AllocTag@@_K1PEBDH@Z
?AppendSamplerDesc@MaterialResourceCache@@SAXAEAV?$basic_string@DU?$char_traits@D@std@@V?$allocator@D@2@@std@@AEBURHISamplerDesc@@@Z
?AppliesRootMotion@AnimatorComponent@@QEBA_NXZ
?Apply@RuntimeUIScreenConfig@@QEBA_NAEAVRuntimeUIScreenStack@@PEAV?$basic_string@DU?$char_traits@D@std@@V?$allocator@D@2@@std@@@Z
?ApplyActionMapOverrides@Input@@SA_NAEBV?$basic_json@Vmap@std@@Vvector@2@V?$basic_string@DU?$char_traits@D@std@@V?$allocator@D@2@@2@_N_J_KNVallocator@2@Uadl_serializer@json_abi_v3_11_3@nlohmann@@V?$vector@EV?$allocator@E@std@@@2@X@json_abi_v3_11_3@nlohmann@@PEAV?$basic_string@DU?$char_traits@D@std@@V?$allocator@D@2@@std@@@Z
?ApplyAll@PrefabSystem@@SA_NAEAVActor@@PEAV?$basic_string@DU?$char_traits@D@std@@V?$allocator@D@2@@std@@@Z
?ApplyCompiledArtifact@ShaderManager@@QEAA_NAEBV?$basic_string@DU?$char_traits@D@std@@V?$allocator@D@2@@std@@0PEAV23@@Z
?ApplyDamage@HealthComponent@@QEAA_NAEBUDamageEvent@@@Z
?ApplyDataModels@UISystem@@AEAAXAEAVScene@@@Z
?ApplyOrthographicForCurrentAspect@SceneViewport@@AEAAXXZ
?ApplyOverridesToAsset@PrefabSystem@@SA_NAEAUPrefabAsset@@AEBV?$basic_json@Vmap@std@@Vvector@2@V?$basic_string@DU?$char_traits@D@std@@V?$allocator@D@2@@2@_N_J_KNVallocator@2@Uadl_serializer@json_abi_v3_11_3@nlohmann@@V?$vector@EV?$allocator@E@std@@@2@X@json_abi_v3_11_3@nlohmann@@PEAV?$basic_string@DU?$char_traits@D@std@@V?$allocator@D@2@@std@@@Z
?ApplyPersistentIdentity@AssetManager@@AEAAXAEAVAsset@@@Z
?ApplyProjectOverride@RuntimeUIScreenStack@@QEAA_NAEBV?$basic_string@DU?$char_traits@D@std@@V?$allocator@D@2@@std@@V23@1AEBV?$unordered_map@V?$basic_string@DU?$char_traits@D@std@@V?$allocator@D@2@@std@@V12@U?$hash@V?$basic_string@DU?$char_traits@D@std@@V?$allocator@D@2@@std@@@2@U?$equal_to@V?$basic_string@DU?$char_traits@D@std@@V?$allocator@D@2@@std@@@2@V?$allocator@U?$pair@$$CBV?$basic_string@DU?$char_traits@D@std@@V?$allocator@D@2@@std@@V12@@std@@@2@@3@PEAV23@@Z
?ApplyRuntimeScreen@UISystem@@AEAAXXZ
?ApplyState@AnimatorComponent@@AEAAXM@Z
?ApplySubtitle@UISystem@@AEAAXXZ
?ApplySystemOverlay@UISystem@@AEAAXXZ
?ApplyViewportMetrics@UISystem@@AEAAXXZ
?ApplyWindowIcon@IconsManager@@QEAA_NAEAVIWindow@@V?$basic_string_view@DU?$char_traits@D@std@@@std@@H@Z
?AssignActorToZone@Scene@@QEAA_N_KUActorHandle@@@Z
?AudioBusName@@YAPEBDW4AudioBus@@@Z
?AvailableRenderBackendValues@@YA?AV?$basic_string@DU?$char_traits@D@std@@V?$allocator@D@2@@std@@XZ
?BackendName@ShaderCooker@@YAPEBDW4ShaderBackend@@@Z
?BackendsForTargetPlatform@ShaderCooker@@YA?AV?$vector@W4ShaderBackend@@V?$allocator@W4ShaderBackend@@@std@@@std@@AEBV?$basic_string@DU?$char_traits@D@std@@V?$allocator@D@2@@3@@Z
?Bake@NavigationWorld@@UEAA_NAEBUNavMeshBakeSettings@@AEBV?$vector@UAABB@Math@@V?$allocator@UAABB@Math@@@std@@@std@@@Z
?Bake@ProbeBakeRenderer@@QEBA?AUProbeBakeResult@@AEBVScene@@AEAVLightingProbeAsset@@AEBV?$function@$$A6AXAEBUProbeBakeProgress@@@Z@std@@PEBU?$atomic@_N@6@@Z
?BeginAttack@HitboxComponent@@QEAAXM@Z
?BeginFrame@RenderGraph@@QEAAXXZ
?BeginLoading@GameFlowController@@QEAAXPEAVScene@@@Z
?BeginPlay@Actor@@AEAAXXZ
?BeginPlay@Scene@@QEAAXXZ
?BeginPlay@SceneLayer@@QEAA_NXZ
?BeginPlayPhase@Actor@@AEAAXXZ
?BeginViewportActivityFrame@SceneRenderLayer@@QEAAXXZ
?BindTextures@MaterialSystem@@SA_NAEAVGpuBindGroup@@AEAVMaterialResourceCache@@AEBUResolvedMaterial@@PEAV?$vector@V?$basic_string@DU?$char_traits@D@std@@V?$allocator@D@2@@std@@V?$allocator@V?$basic_string@DU?$char_traits@D@std@@V?$allocator@D@2@@std@@@2@@std@@@Z
?BuildBillboardMesh@ParticleSystemComponent@@QEAAPEAVMeshAsset@@AEBVCamera@@@Z
?BuildCacheKey@ShaderCooker@@YA?AV?$basic_string@DU?$char_traits@D@std@@V?$allocator@D@2@@std@@AEBVpath@filesystem@3@0AEBV?$vector@W4ShaderBackend@@V?$allocator@W4ShaderBackend@@@std@@@3@AEBV23@2PEAV?$vector@V?$basic_string@DU?$char_traits@D@std@@V?$allocator@D@2@@std@@V?$allocator@V?$basic_string@DU?$char_traits@D@std@@V?$allocator@D@2@@std@@@2@@3@PEAV23@@Z
?BuildCamera@CameraComponent@@QEBA?AVCamera@@AEBVActor@@M@Z
?BuildCanonicalKey@ShaderGraphCompiler@@YA?AV?$basic_string@DU?$char_traits@D@std@@V?$allocator@D@2@@std@@AEBUShaderGraph@@AEBV?$vector@UShaderPropertyDesc@@V?$allocator@UShaderPropertyDesc@@@std@@@3@W4ShaderShadingModel@@W4ShaderSurfaceType@@@Z
?BuildChain@MaterialSystem@@AEBA_NAEBVMaterialAsset@@AEAV?$vector@PEBVMaterialAsset@@V?$allocator@PEBVMaterialAsset@@@std@@@std@@AEAV?$vector@V?$AssetHandle@VMaterialAsset@@@@V?$allocator@V?$AssetHandle@VMaterialAsset@@@@@std@@@4@AEAV?$vector@V?$basic_string@DU?$char_traits@D@std@@V?$allocator@D@2@@std@@V?$allocator@V?$basic_string@DU?$char_traits@D@std@@V?$allocator@D@2@@std@@@2@@4@3@Z
?BuildDocument@UIActorTreeBuilder@@SA_NAEBVActor@@AEBVUICanvasComponent@@AEAV?$basic_string@DU?$char_traits@D@std@@V?$allocator@D@2@@std@@PEAV45@@Z
?BuildLoadPlan@SceneSerializer@@SA_NAEBV?$basic_string@DU?$char_traits@D@std@@V?$allocator@D@2@@std@@AEAUSceneLoadPlan@@PEAV23@@Z
?BuildOverrides@PrefabSystem@@SA_NAEBVActor@@AEAV?$basic_json@Vmap@std@@Vvector@2@V?$basic_string@DU?$char_traits@D@std@@V?$allocator@D@2@@2@_N_J_KNVallocator@2@Uadl_serializer@json_abi_v3_11_3@nlohmann@@V?$vector@EV?$allocator@E@std@@@2@X@json_abi_v3_11_3@nlohmann@@PEAV?$basic_string@DU?$char_traits@D@std@@V?$allocator@D@2@@std@@@Z
?BuildPrewarmRequests@ShaderManager@@AEBA?AV?$vector@UShaderCacheRequest@@V?$allocator@UShaderCacheRequest@@@std@@@std@@AEBV?$vector@V?$basic_string@DU?$char_traits@D@std@@V?$allocator@D@2@@std@@V?$allocator@V?$basic_string@DU?$char_traits@D@std@@V?$allocator@D@2@@std@@@2@@3@AEAV43@AEAW4ShaderBackend@@PEA_N@Z
?BuildRayFromNdc@Camera@@QEBA_NMMAEAURay@Math@@@Z
?BuildRayFromScreen@RenderViewport@@QEBA_NMMAEAURay@Math@@@Z
?BuildRayFromScreen@SceneRenderLayer@@QEBA_NMMAEAURay@Math@@@Z
?CachedCount@AssetManager@@QEBA_KXZ
?CalculateDistanceAttenuation@AudioEngine@@SAMMMM@Z
?Call@AngelScriptRuntime@@QEAA_NPEBDMAEAV?$basic_string@DU?$char_traits@D@std@@V?$allocator@D@2@@std@@@Z
?Call@ScriptComponent@@AEAAXPEBDM@Z
?CallAnimationEvent@AngelScriptRuntime@@QEAA_NAEBV?$basic_string@DU?$char_traits@D@std@@V?$allocator@D@2@@std@@0AEAV23@@Z
?CallCollision@AngelScriptRuntime@@QEAA_NAEBUCollisionEvent@@AEAV?$basic_string@DU?$char_traits@D@std@@V?$allocator@D@2@@std@@@Z
?CanInteract@InteractionComponent@@QEBA_NXZ
?CanSeeTarget@EnemyAIComponent@@AEBA_NXZ
?CancelAll@TaskScope@@QEAAXXZ
?CancelAllTimers@AngelScriptRuntime@@QEAAXXZ
?CancelAllTimers@ScriptComponent@@QEAAXXZ
?CancelAndWait@TaskScope@@QEAAXXZ
?CancelLoad@SceneManager@@QEAAXXZ
?CancelTimer@AngelScriptRuntime@@QEAAX_K@Z
?CancelTimer@ScriptComponent@@QEAAX_K@Z
?Capacity@LinearAllocator@@QEBA_KXZ
?CaptureFence@GpuUploadQueue@@QEBA_KXZ
?CaptureOverrides@PrefabSystem@@SA_NAEAVActor@@PEAV?$basic_string@DU?$char_traits@D@std@@V?$allocator@D@2@@std@@@Z
?CaptureRuntimeTables@ScriptComponent@@AEAAXXZ
?CaptureSourceWriteTime@AssetManager@@AEAA_N_KAEBV?$basic_string@DU?$char_traits@D@std@@V?$allocator@D@2@@std@@@Z
?CastsShadows@LightComponent@@QEBA_NXZ
?CellCenter@NavigationWorld@@AEBA?AUVec3@Math@@HH@Z
?ChangeState@EnemyAIComponent@@AEAAXW4EnemyState@@@Z
?Clear@AssetDatabase@@QEAAXXZ
?Clear@AssetManager@@QEAAXXZ
?Clear@DebugDrawService@@QEAAXXZ
?Clear@GpuUploadQueue@@QEAAXXZ
?Clear@IconsManager@@QEAAXXZ
?Clear@InputActionMap@@QEAAXXZ
?Clear@LayerStack@@QEAAXXZ
?Clear@NavigationWorld@@UEAAXXZ
?Clear@RuntimeUIScreenStack@@QEAAXXZ
?Clear@Scene@@QEAAXXZ
?Clear@ShaderManager@@QEAAXXZ
?Clear@SubtitleSystem@@QEAAXXZ
?ClearActionMap@Input@@SAXXZ
?ClearBlendAnimation@SkinnedMeshRendererComponent@@QEAAXXZ
?ClearDirty@SceneLayer@@QEAAXXZ
?ClearLayers@Engine@@QEAAXXZ
?ClearOwner@UIEventBridge@@QEAAXPEAX@Z
?ClearPatrolPoints@EnemyAIComponent@@QEAAXXZ
?ClearPauseReasons@GameFlowController@@QEAAXPEAVScene@@@Z
?ClearPersistentData@SceneManager@@QEAAXXZ
?ClearResolver@ShaderCacheService@@QEAAXXZ
?ClearScene@DebugDrawService@@QEAAXAEBVScene@@@Z
?ClearScriptEventSubscriptions@AngelScriptRuntime@@QEAAXXZ
?ClearScriptEventSubscriptions@ScriptComponent@@QEAAXXZ
?ClearStorageRootOverride@RuntimeUserSettingsStore@@SAXXZ
?ClearStorageRootOverride@SaveGame@@SAXXZ
?ClearSubtitles@SceneRenderLayer@@QEAAXXZ
?ClearSubtitles@UISystem@@QEAAXXZ
?ClearUIEventBridge@AngelScriptRuntime@@SAXPEAVUIEventBridge@@@Z
?ClearUIEventSubscriptions@AngelScriptRuntime@@QEAAXXZ
?ClearUIEventSubscriptions@ScriptComponent@@QEAAXXZ
?ClearUISystem@AngelScriptRuntime@@SAXPEAVUISystem@@@Z
?CloneSceneFromJson@SceneLayer@@AEBA?AV?$unique_ptr@VScene@@U?$default_delete@VScene@@@std@@@std@@AEBV?$basic_string@DU?$char_traits@D@std@@V?$allocator@D@2@@3@@Z
?CloseDocument@UICanvas@@QEAAXXZ
?CloseGamepadSlot@Input@@CAXAEAUGamepadState@1@@Z
?Collect@SceneRenderCollector@@QEBA?AUSceneRenderCollection@@AEBVScene@@AEBVCamera@@_N@Z
?Collect@WindowsRuntimeDependencyCollector@@SA_NAEBVpath@filesystem@std@@0AEAURuntimeDependencyManifest@@AEBV?$basic_string@DU?$char_traits@D@std@@V?$allocator@D@2@@4@PEAV64@@Z
?Collect@WindowsRuntimeDependencyCollector@@SA_NAEBVpath@filesystem@std@@0AEAURuntimeDependencyManifest@@AEBV?$vector@V?$basic_string@DU?$char_traits@D@std@@V?$allocator@D@2@@std@@V?$allocator@V?$basic_string@DU?$char_traits@D@std@@V?$allocator@D@2@@std@@@2@@4@PEAV?$basic_string@DU?$char_traits@D@std@@V?$allocator@D@2@@4@@Z
?Collect@WindowsRuntimeDependencyCollector@@SA_NAEBVpath@filesystem@std@@0AEAURuntimeDependencyManifest@@PEAV?$basic_string@DU?$char_traits@D@std@@V?$allocator@D@2@@4@@Z
?CollectDependencies@ShaderCooker@@YA_NAEBVpath@filesystem@std@@0AEAV?$vector@V?$basic_string@DU?$char_traits@D@std@@V?$allocator@D@2@@std@@V?$allocator@V?$basic_string@DU?$char_traits@D@std@@V?$allocator@D@2@@std@@@2@@4@PEAV?$basic_string@DU?$char_traits@D@std@@V?$allocator@D@2@@4@@Z
?CollectDrawData@UISystem@@QEAAXAEAVScene@@AEAVUIDrawList@@@Z
?CollectGarbage@AssetManager@@QEAA_KAEBUAssetCacheBudget@@@Z
?CollectGarbageDetailed@AssetManager@@QEAA?AUAssetGarbageCollectionReport@@AEBUAssetCacheBudget@@@Z
?CollectGlobalMeshGarbage@MaterialResourceCache@@SA?AUGpuTextureGarbageCollectionReport@@_KM00@Z
?CollectGlobalTextureGarbage@MaterialResourceCache@@SA?AUGpuTextureGarbageCollectionReport@@_KM0@Z
?CollectSceneEnvironmentData@@YA?AUSceneEnvironmentData@@AEBVScene@@@Z
?CollectSceneLights@@YA?AUSceneLightData@@AEBVScene@@@Z
?CollectSceneLights@@YA?AUSceneLightData@@AEBVScene@@AEBUSceneEnvironmentData@@@Z
?Collide@@YA_NAEBUCapsuleShape@@0AEAUContactManifold@@@Z
?Collide@@YA_NAEBUCapsuleShape@@AEBUOrientedBox@@AEAUContactManifold@@@Z
?Collide@@YA_NAEBUCapsuleShape@@AEBUSphereShape@@AEAUContactManifold@@@Z
?Collide@@YA_NAEBUOrientedBox@@0AEAUContactManifold@@@Z
?Collide@@YA_NAEBUSphereShape@@0AEAUContactManifold@@@Z
?Collide@@YA_NAEBUSphereShape@@AEBUOrientedBox@@AEAUContactManifold@@@Z
?ComesBefore@SubtitleSystem@@CA_NAEBUQueuedCue@1@0@Z
?CommitAccounting@GpuResource@@QEAAXW4GpuResourceAccountingClass@@_KI@Z
?CommitRHIResourceAccounting@@YAXAEBV?$shared_ptr@UGpuBuffer@@@std@@@Z
?CommitRHIResourceAccounting@@YAXAEBV?$shared_ptr@UGpuTexture@@@std@@@Z
?CommitTemporalFrame@ModernDeferredPipeline@@QEAAXXZ
?CommitViewportActivityFrame@SceneRenderLayer@@QEAAXXZ
?Compile@RenderGraph@@QEAA_NXZ
?Compile@ScriptComponent@@AEAAX_N@Z
?Compile@ShaderGraphCompiler@@YA?AUShaderGraphCompileResult@@AEBUShaderGraphCompileRequest@@@Z
?CompileRecord@ShaderManager@@AEAA?AV?$shared_ptr@UGpuShader@@@std@@AEBUShaderRecord@1@@Z
?CompileStageFromFile@ShaderCompilerSlang@@SA_NAEBVpath@filesystem@std@@AEBV?$basic_string@DU?$char_traits@D@std@@V?$allocator@D@2@@4@W4ShaderStage@@W4ShaderBackend@@AEAV?$vector@EV?$allocator@E@std@@@4@AEBV?$vector@V?$basic_string@DU?$char_traits@D@std@@V?$allocator@D@2@@std@@V?$allocator@V?$basic_string@DU?$char_traits@D@std@@V?$allocator@D@2@@std@@@2@@4@PEAV54@PEAUCookedShaderStageReflection@@@Z
?ComputeDependencyHash@ProbeBakeRenderer@@SA_KAEBVScene@@@Z
?ComputeSignature@UIActorTreeBuilder@@SA_KAEBVActor@@@Z
?ConditionsPass@AnimatorComponent@@AEBA_NAEBUAnimatorTransition@@@Z
?Configure@RuntimeResourceBudgetController@@QEAA_NAEBURuntimeResourceBudgetConfig@@PEAV?$basic_string@DU?$char_traits@D@std@@V?$allocator@D@2@@std@@@Z
?ConfigureFileSystemCache@ShaderCacheService@@QEAAXAEBVpath@filesystem@std@@V?$basic_string@DU?$char_traits@D@std@@V?$allocator@D@2@@4@_K@Z
?ConfigureMaterialPreview@SceneRenderLayer@@QEAAXAEBV?$basic_string@DU?$char_traits@D@std@@V?$allocator@D@2@@std@@_N@Z
?ConfigureRayTracedShadow@ModernDeferredPipeline@@QEAA_N_NM@Z
?ConsumeDiagnosticsReadback@ModernDeferredPipeline@@AEAAXXZ
?ConsumeEvents@AnimatorComponent@@QEAA?AV?$vector@UAnimatorEvent@@V?$allocator@UAnimatorEvent@@@std@@@std@@XZ
?ConsumeJump@CharacterControllerComponent@@AEAA_NAEAM@Z
?ConsumeRootMotionDelta@AnimatorComponent@@QEAA?AUVec3@Math@@XZ
?ContentBytes@ContentArchiveReader@@QEBA_KXZ
?Cook@ShaderCooker@@YA?AUShaderCookResult@@AEBUShaderCookRequest@@PEAV?$basic_string@DU?$char_traits@D@std@@V?$allocator@D@2@@std@@@Z
?Create@AssetMeta@@SA?AU1@AEBV?$basic_string@DU?$char_traits@D@std@@V?$allocator@D@2@@std@@@Z
?Create@ComponentRegistry@@QEBAPEAVComponent@@AEBV?$basic_string@DU?$char_traits@D@std@@V?$allocator@D@2@@std@@AEAVActor@@@Z
?Create@ContentArchive@@SA_NAEBVpath@filesystem@std@@0PEAV?$vector@UCookedContentEntry@@V?$allocator@UCookedContentEntry@@@std@@@4@PEAV?$basic_string@DU?$char_traits@D@std@@V?$allocator@D@2@@4@@Z
?Create@TypeRegistry@@QEBA?AV?$unique_ptr@VComponent@@U?$default_delete@VComponent@@@std@@@std@@AEBV?$basic_string@DU?$char_traits@D@std@@V?$allocator@D@2@@3@@Z
?CreateActor@Scene@@QEAAPEAVActor@@AEBV?$basic_string@DU?$char_traits@D@std@@V?$allocator@D@2@@std@@@Z
?CreateActor@Scene@@QEAAPEAVActor@@AEBV?$basic_string@DU?$char_traits@D@std@@V?$allocator@D@2@@std@@PEAV2@@Z
?CreateActorWithID@Scene@@QEAAPEAVActor@@AEBV?$basic_string@DU?$char_traits@D@std@@V?$allocator@D@2@@std@@_K@Z
?CreateBuffer@RenderGraph@@QEAA?AURGBufferHandle@@AEBV?$basic_string@DU?$char_traits@D@std@@V?$allocator@D@2@@std@@AEBURHIBufferDesc@@@Z
?CreateCube@MeshAsset@@SA?AV?$shared_ptr@VMeshAsset@@@std@@AEBV?$basic_string@DU?$char_traits@D@std@@V?$allocator@D@2@@3@@Z
?CreateDataModel@UISystem@@QEAAAEAVUIDataModel@@AEBV?$basic_string@DU?$char_traits@D@std@@V?$allocator@D@2@@std@@@Z
?CreateDefault@InputActionMap@@SA?AV1@XZ
?CreateDetached@ComponentRegistry@@QEBA?AV?$unique_ptr@VComponent@@U?$default_delete@VComponent@@@std@@@std@@AEBV?$basic_string@DU?$char_traits@D@std@@V?$allocator@D@2@@3@@Z
?CreateGltfModelAssetImporter@@YA?AV?$unique_ptr@VIAssetImporter@@U?$default_delete@VIAssetImporter@@@std@@@std@@XZ
?CreateMesh@DebugDraw@@YA?AV?$shared_ptr@$$CBVDebugDrawMesh@@@std@@AEBV?$vector@UVec3@Math@@V?$allocator@UVec3@Math@@@std@@@3@AEBV?$vector@IV?$allocator@I@std@@@3@@Z
?CreatePassthroughAssetImporter@@YA?AV?$unique_ptr@VIAssetImporter@@U?$default_delete@VIAssetImporter@@@std@@@std@@XZ
?CreateQuad@MeshAsset@@SA?AV?$shared_ptr@VMeshAsset@@@std@@AEBV?$basic_string@DU?$char_traits@D@std@@V?$allocator@D@2@@3@@Z
?CreateRenderContext@@YA?AV?$unique_ptr@VIRHIContext@@U?$default_delete@VIRHIContext@@@std@@@std@@W4RenderBackend@@@Z
?CreateRuntimeScreenDocument@UISystem@@AEAAXXZ
?CreateShaderAssetImporter@@YA?AV?$unique_ptr@VIAssetImporter@@U?$default_delete@VIAssetImporter@@@std@@@std@@XZ
?CreateShaderGraphNode@@YA?AUShaderGraphNode@@AEBV?$basic_string@DU?$char_traits@D@std@@V?$allocator@D@2@@std@@_KAEA_K@Z
?CreateSolid@TextureAsset@@SA?AV?$shared_ptr@VTextureAsset@@@std@@AEBV?$basic_string@DU?$char_traits@D@std@@V?$allocator@D@2@@3@EEEE@Z
?CreateStandard@RuntimeUIScreenStack@@SA?AV1@XZ
?CreateSubtitleDocument@UISystem@@AEAAXXZ
?CreateSystemOverlayDocument@UISystem@@AEAAXXZ
?CreateTexture@RenderGraph@@QEAA?AURGTextureHandle@@AEBV?$basic_string@DU?$char_traits@D@std@@V?$allocator@D@2@@std@@AEBURHITextureDesc@@@Z
?CreateTriangle@MeshAsset@@SA?AV?$shared_ptr@VMeshAsset@@@std@@AEBV?$basic_string@DU?$char_traits@D@std@@V?$allocator@D@2@@3@@Z
?CreateZone@Scene@@QEAA_KV?$basic_string@DU?$char_traits@D@std@@V?$allocator@D@2@@std@@@Z
?CurrentDependencyWriteTime@ScriptComponent@@AEBA?AV?$time_point@U_File_time_clock@filesystem@std@@V?$duration@_JU?$ratio@$00$0JIJGIA@@std@@@chrono@3@@chrono@std@@AEA_N@Z
?CurrentVersion@InputGlyphAtlas@@2IB
?CurrentVersion@LightingProbeAsset@@2IB
?CurrentVersion@RuntimePerformanceProfile@@2IB
?CurrentVersion@RuntimeUIScreenConfig@@2IB
?DefaultPath@InputGlyphAtlas@@2QEBDEB
?DefaultPath@RuntimeUIScreenConfig@@2QEBDEB
?DefaultRoot@CookedProjectCache@@SA?AVpath@filesystem@std@@XZ
?DefaultValue@MaterialSystem@@SA?AUMaterialParam@@AEBUShaderPropertyDesc@@@Z
?Defaults@RuntimeUserSettingsStore@@SA?AURuntimeUserSettings@@XZ
?Depth@RuntimeUIScreenStack@@QEBA_KXZ
?Deserialize@AnimatorComponent@@UEAAXAEBV?$basic_json@Vmap@std@@Vvector@2@V?$basic_string@DU?$char_traits@D@std@@V?$allocator@D@2@@2@_N_J_KNVallocator@2@Uadl_serializer@json_abi_v3_11_3@nlohmann@@V?$vector@EV?$allocator@E@std@@@2@X@json_abi_v3_11_3@nlohmann@@@Z
?Deserialize@AnimatorController@@QEAA_NAEBV?$basic_json@Vmap@std@@Vvector@2@V?$basic_string@DU?$char_traits@D@std@@V?$allocator@D@2@@2@_N_J_KNVallocator@2@Uadl_serializer@json_abi_v3_11_3@nlohmann@@V?$vector@EV?$allocator@E@std@@@2@X@json_abi_v3_11_3@nlohmann@@@Z
?Deserialize@AudioListenerComponent@@UEAAXAEBV?$basic_json@Vmap@std@@Vvector@2@V?$basic_string@DU?$char_traits@D@std@@V?$allocator@D@2@@2@_N_J_KNVallocator@2@Uadl_serializer@json_abi_v3_11_3@nlohmann@@V?$vector@EV?$allocator@E@std@@@2@X@json_abi_v3_11_3@nlohmann@@@Z
?Deserialize@AudioSourceComponent@@UEAAXAEBV?$basic_json@Vmap@std@@Vvector@2@V?$basic_string@DU?$char_traits@D@std@@V?$allocator@D@2@@2@_N_J_KNVallocator@2@Uadl_serializer@json_abi_v3_11_3@nlohmann@@V?$vector@EV?$allocator@E@std@@@2@X@json_abi_v3_11_3@nlohmann@@@Z
?Deserialize@BoxColliderComponent@@UEAAXAEBV?$basic_json@Vmap@std@@Vvector@2@V?$basic_string@DU?$char_traits@D@std@@V?$allocator@D@2@@2@_N_J_KNVallocator@2@Uadl_serializer@json_abi_v3_11_3@nlohmann@@V?$vector@EV?$allocator@E@std@@@2@X@json_abi_v3_11_3@nlohmann@@@Z
?Deserialize@CameraComponent@@UEAAXAEBV?$basic_json@Vmap@std@@Vvector@2@V?$basic_string@DU?$char_traits@D@std@@V?$allocator@D@2@@2@_N_J_KNVallocator@2@Uadl_serializer@json_abi_v3_11_3@nlohmann@@V?$vector@EV?$allocator@E@std@@@2@X@json_abi_v3_11_3@nlohmann@@@Z
?Deserialize@CapsuleColliderComponent@@UEAAXAEBV?$basic_json@Vmap@std@@Vvector@2@V?$basic_string@DU?$char_traits@D@std@@V?$allocator@D@2@@2@_N_J_KNVallocator@2@Uadl_serializer@json_abi_v3_11_3@nlohmann@@V?$vector@EV?$allocator@E@std@@@2@X@json_abi_v3_11_3@nlohmann@@@Z
?Deserialize@CharacterControllerComponent@@UEAAXAEBV?$basic_json@Vmap@std@@Vvector@2@V?$basic_string@DU?$char_traits@D@std@@V?$allocator@D@2@@2@_N_J_KNVallocator@2@Uadl_serializer@json_abi_v3_11_3@nlohmann@@V?$vector@EV?$allocator@E@std@@@2@X@json_abi_v3_11_3@nlohmann@@@Z
?Deserialize@Component@@UEAAXAEBV?$basic_json@Vmap@std@@Vvector@2@V?$basic_string@DU?$char_traits@D@std@@V?$allocator@D@2@@2@_N_J_KNVallocator@2@Uadl_serializer@json_abi_v3_11_3@nlohmann@@V?$vector@EV?$allocator@E@std@@@2@X@json_abi_v3_11_3@nlohmann@@@Z
?Deserialize@EnemyAIComponent@@UEAAXAEBV?$basic_json@Vmap@std@@Vvector@2@V?$basic_string@DU?$char_traits@D@std@@V?$allocator@D@2@@2@_N_J_KNVallocator@2@Uadl_serializer@json_abi_v3_11_3@nlohmann@@V?$vector@EV?$allocator@E@std@@@2@X@json_abi_v3_11_3@nlohmann@@@Z
?Deserialize@GameplayFeedbackComponent@@UEAAXAEBV?$basic_json@Vmap@std@@Vvector@2@V?$basic_string@DU?$char_traits@D@std@@V?$allocator@D@2@@2@_N_J_KNVallocator@2@Uadl_serializer@json_abi_v3_11_3@nlohmann@@V?$vector@EV?$allocator@E@std@@@2@X@json_abi_v3_11_3@nlohmann@@@Z
?Deserialize@HealthComponent@@UEAAXAEBV?$basic_json@Vmap@std@@Vvector@2@V?$basic_string@DU?$char_traits@D@std@@V?$allocator@D@2@@2@_N_J_KNVallocator@2@Uadl_serializer@json_abi_v3_11_3@nlohmann@@V?$vector@EV?$allocator@E@std@@@2@X@json_abi_v3_11_3@nlohmann@@@Z
?Deserialize@HitboxComponent@@UEAAXAEBV?$basic_json@Vmap@std@@Vvector@2@V?$basic_string@DU?$char_traits@D@std@@V?$allocator@D@2@@2@_N_J_KNVallocator@2@Uadl_serializer@json_abi_v3_11_3@nlohmann@@V?$vector@EV?$allocator@E@std@@@2@X@json_abi_v3_11_3@nlohmann@@@Z
?Deserialize@HurtboxComponent@@UEAAXAEBV?$basic_json@Vmap@std@@Vvector@2@V?$basic_string@DU?$char_traits@D@std@@V?$allocator@D@2@@2@_N_J_KNVallocator@2@Uadl_serializer@json_abi_v3_11_3@nlohmann@@V?$vector@EV?$allocator@E@std@@@2@X@json_abi_v3_11_3@nlohmann@@@Z
?Deserialize@InteractionComponent@@UEAAXAEBV?$basic_json@Vmap@std@@Vvector@2@V?$basic_string@DU?$char_traits@D@std@@V?$allocator@D@2@@2@_N_J_KNVallocator@2@Uadl_serializer@json_abi_v3_11_3@nlohmann@@V?$vector@EV?$allocator@E@std@@@2@X@json_abi_v3_11_3@nlohmann@@@Z
?Deserialize@LightComponent@@UEAAXAEBV?$basic_json@Vmap@std@@Vvector@2@V?$basic_string@DU?$char_traits@D@std@@V?$allocator@D@2@@2@_N_J_KNVallocator@2@Uadl_serializer@json_abi_v3_11_3@nlohmann@@V?$vector@EV?$allocator@E@std@@@2@X@json_abi_v3_11_3@nlohmann@@@Z
?Deserialize@MeshRendererComponent@@UEAAXAEBV?$basic_json@Vmap@std@@Vvector@2@V?$basic_string@DU?$char_traits@D@std@@V?$allocator@D@2@@2@_N_J_KNVallocator@2@Uadl_serializer@json_abi_v3_11_3@nlohmann@@V?$vector@EV?$allocator@E@std@@@2@X@json_abi_v3_11_3@nlohmann@@@Z
?Deserialize@NavAgentComponent@@UEAAXAEBV?$basic_json@Vmap@std@@Vvector@2@V?$basic_string@DU?$char_traits@D@std@@V?$allocator@D@2@@2@_N_J_KNVallocator@2@Uadl_serializer@json_abi_v3_11_3@nlohmann@@V?$vector@EV?$allocator@E@std@@@2@X@json_abi_v3_11_3@nlohmann@@@Z
?Deserialize@ParticleSystemComponent@@UEAAXAEBV?$basic_json@Vmap@std@@Vvector@2@V?$basic_string@DU?$char_traits@D@std@@V?$allocator@D@2@@2@_N_J_KNVallocator@2@Uadl_serializer@json_abi_v3_11_3@nlohmann@@V?$vector@EV?$allocator@E@std@@@2@X@json_abi_v3_11_3@nlohmann@@@Z
?Deserialize@PostProcessComponent@@UEAAXAEBV?$basic_json@Vmap@std@@Vvector@2@V?$basic_string@DU?$char_traits@D@std@@V?$allocator@D@2@@2@_N_J_KNVallocator@2@Uadl_serializer@json_abi_v3_11_3@nlohmann@@V?$vector@EV?$allocator@E@std@@@2@X@json_abi_v3_11_3@nlohmann@@@Z
?Deserialize@ReflectionProbeComponent@@UEAAXAEBV?$basic_json@Vmap@std@@Vvector@2@V?$basic_string@DU?$char_traits@D@std@@V?$allocator@D@2@@2@_N_J_KNVallocator@2@Uadl_serializer@json_abi_v3_11_3@nlohmann@@V?$vector@EV?$allocator@E@std@@@2@X@json_abi_v3_11_3@nlohmann@@@Z
?Deserialize@RigidBodyComponent@@UEAAXAEBV?$basic_json@Vmap@std@@Vvector@2@V?$basic_string@DU?$char_traits@D@std@@V?$allocator@D@2@@2@_N_J_KNVallocator@2@Uadl_serializer@json_abi_v3_11_3@nlohmann@@V?$vector@EV?$allocator@E@std@@@2@X@json_abi_v3_11_3@nlohmann@@@Z
?Deserialize@SHProbeVolumeComponent@@UEAAXAEBV?$basic_json@Vmap@std@@Vvector@2@V?$basic_string@DU?$char_traits@D@std@@V?$allocator@D@2@@2@_N_J_KNVallocator@2@Uadl_serializer@json_abi_v3_11_3@nlohmann@@V?$vector@EV?$allocator@E@std@@@2@X@json_abi_v3_11_3@nlohmann@@@Z
?Deserialize@ScriptComponent@@UEAAXAEBV?$basic_json@Vmap@std@@Vvector@2@V?$basic_string@DU?$char_traits@D@std@@V?$allocator@D@2@@2@_N_J_KNVallocator@2@Uadl_serializer@json_abi_v3_11_3@nlohmann@@V?$vector@EV?$allocator@E@std@@@2@X@json_abi_v3_11_3@nlohmann@@@Z
?Deserialize@SkinnedMeshRendererComponent@@UEAAXAEBV?$basic_json@Vmap@std@@Vvector@2@V?$basic_string@DU?$char_traits@D@std@@V?$allocator@D@2@@2@_N_J_KNVallocator@2@Uadl_serializer@json_abi_v3_11_3@nlohmann@@V?$vector@EV?$allocator@E@std@@@2@X@json_abi_v3_11_3@nlohmann@@@Z
?Deserialize@SkylightComponent@@UEAAXAEBV?$basic_json@Vmap@std@@Vvector@2@V?$basic_string@DU?$char_traits@D@std@@V?$allocator@D@2@@2@_N_J_KNVallocator@2@Uadl_serializer@json_abi_v3_11_3@nlohmann@@V?$vector@EV?$allocator@E@std@@@2@X@json_abi_v3_11_3@nlohmann@@@Z
?Deserialize@SphereColliderComponent@@UEAAXAEBV?$basic_json@Vmap@std@@Vvector@2@V?$basic_string@DU?$char_traits@D@std@@V?$allocator@D@2@@2@_N_J_KNVallocator@2@Uadl_serializer@json_abi_v3_11_3@nlohmann@@V?$vector@EV?$allocator@E@std@@@2@X@json_abi_v3_11_3@nlohmann@@@Z
?Deserialize@ThirdPersonCameraComponent@@UEAAXAEBV?$basic_json@Vmap@std@@Vvector@2@V?$basic_string@DU?$char_traits@D@std@@V?$allocator@D@2@@2@_N_J_KNVallocator@2@Uadl_serializer@json_abi_v3_11_3@nlohmann@@V?$vector@EV?$allocator@E@std@@@2@X@json_abi_v3_11_3@nlohmann@@@Z
?Deserialize@TypeRegistry@@QEBA_NAEAVComponent@@AEBV?$basic_string@DU?$char_traits@D@std@@V?$allocator@D@2@@std@@IAEBV?$basic_json@Vmap@std@@Vvector@2@V?$basic_string@DU?$char_traits@D@std@@V?$allocator@D@2@@2@_N_J_KNVallocator@2@Uadl_serializer@json_abi_v3_11_3@nlohmann@@V?$vector@EV?$allocator@E@std@@@2@X@json_abi_v3_11_3@nlohmann@@PEAV34@@Z
?Deserialize@UIButtonComponent@@UEAAXAEBV?$basic_json@Vmap@std@@Vvector@2@V?$basic_string@DU?$char_traits@D@std@@V?$allocator@D@2@@2@_N_J_KNVallocator@2@Uadl_serializer@json_abi_v3_11_3@nlohmann@@V?$vector@EV?$allocator@E@std@@@2@X@json_abi_v3_11_3@nlohmann@@@Z
?Deserialize@UICanvasComponent@@UEAAXAEBV?$basic_json@Vmap@std@@Vvector@2@V?$basic_string@DU?$char_traits@D@std@@V?$allocator@D@2@@2@_N_J_KNVallocator@2@Uadl_serializer@json_abi_v3_11_3@nlohmann@@V?$vector@EV?$allocator@E@std@@@2@X@json_abi_v3_11_3@nlohmann@@@Z
?Deserialize@UIElementComponent@@UEAAXAEBV?$basic_json@Vmap@std@@Vvector@2@V?$basic_string@DU?$char_traits@D@std@@V?$allocator@D@2@@2@_N_J_KNVallocator@2@Uadl_serializer@json_abi_v3_11_3@nlohmann@@V?$vector@EV?$allocator@E@std@@@2@X@json_abi_v3_11_3@nlohmann@@@Z
?Deserialize@UIGridLayoutComponent@@UEAAXAEBV?$basic_json@Vmap@std@@Vvector@2@V?$basic_string@DU?$char_traits@D@std@@V?$allocator@D@2@@2@_N_J_KNVallocator@2@Uadl_serializer@json_abi_v3_11_3@nlohmann@@V?$vector@EV?$allocator@E@std@@@2@X@json_abi_v3_11_3@nlohmann@@@Z
?Deserialize@UIImageComponent@@UEAAXAEBV?$basic_json@Vmap@std@@Vvector@2@V?$basic_string@DU?$char_traits@D@std@@V?$allocator@D@2@@2@_N_J_KNVallocator@2@Uadl_serializer@json_abi_v3_11_3@nlohmann@@V?$vector@EV?$allocator@E@std@@@2@X@json_abi_v3_11_3@nlohmann@@@Z
?Deserialize@UILayoutGroupComponent@@UEAAXAEBV?$basic_json@Vmap@std@@Vvector@2@V?$basic_string@DU?$char_traits@D@std@@V?$allocator@D@2@@2@_N_J_KNVallocator@2@Uadl_serializer@json_abi_v3_11_3@nlohmann@@V?$vector@EV?$allocator@E@std@@@2@X@json_abi_v3_11_3@nlohmann@@@Z
?Deserialize@UIProgressBarComponent@@UEAAXAEBV?$basic_json@Vmap@std@@Vvector@2@V?$basic_string@DU?$char_traits@D@std@@V?$allocator@D@2@@2@_N_J_KNVallocator@2@Uadl_serializer@json_abi_v3_11_3@nlohmann@@V?$vector@EV?$allocator@E@std@@@2@X@json_abi_v3_11_3@nlohmann@@@Z
?Deserialize@UIRectTransformComponent@@UEAAXAEBV?$basic_json@Vmap@std@@Vvector@2@V?$basic_string@DU?$char_traits@D@std@@V?$allocator@D@2@@2@_N_J_KNVallocator@2@Uadl_serializer@json_abi_v3_11_3@nlohmann@@V?$vector@EV?$allocator@E@std@@@2@X@json_abi_v3_11_3@nlohmann@@@Z
?Deserialize@UIScrollViewComponent@@UEAAXAEBV?$basic_json@Vmap@std@@Vvector@2@V?$basic_string@DU?$char_traits@D@std@@V?$allocator@D@2@@2@_N_J_KNVallocator@2@Uadl_serializer@json_abi_v3_11_3@nlohmann@@V?$vector@EV?$allocator@E@std@@@2@X@json_abi_v3_11_3@nlohmann@@@Z
?Deserialize@UISliderComponent@@UEAAXAEBV?$basic_json@Vmap@std@@Vvector@2@V?$basic_string@DU?$char_traits@D@std@@V?$allocator@D@2@@2@_N_J_KNVallocator@2@Uadl_serializer@json_abi_v3_11_3@nlohmann@@V?$vector@EV?$allocator@E@std@@@2@X@json_abi_v3_11_3@nlohmann@@@Z
?Deserialize@UITextComponent@@UEAAXAEBV?$basic_json@Vmap@std@@Vvector@2@V?$basic_string@DU?$char_traits@D@std@@V?$allocator@D@2@@2@_N_J_KNVallocator@2@Uadl_serializer@json_abi_v3_11_3@nlohmann@@V?$vector@EV?$allocator@E@std@@@2@X@json_abi_v3_11_3@nlohmann@@@Z
?DeserializeCollider@ColliderComponent@@IEAAXAEBV?$basic_json@Vmap@std@@Vvector@2@V?$basic_string@DU?$char_traits@D@std@@V?$allocator@D@2@@2@_N_J_KNVallocator@2@Uadl_serializer@json_abi_v3_11_3@nlohmann@@V?$vector@EV?$allocator@E@std@@@2@X@json_abi_v3_11_3@nlohmann@@@Z
?DestroyActor@Scene@@QEAAXPEAVActor@@@Z
?DestroyActorDeferred@Scene@@QEAAXPEAVActor@@@Z
?DestroyActorInternal@Scene@@AEAAXPEAVActor@@@Z
?DestroyAllZones@Scene@@AEAAXXZ
?DestroyZone@Scene@@QEAA_N_K@Z
?Device@RenderPass@@IEBAPEAVIRHIDevice@@XZ
?DisableRayTracing@ModernDeferredPipeline@@AEAAXV?$basic_string@DU?$char_traits@D@std@@V?$allocator@D@2@@std@@@Z
?DiscoverClasses@AngelScriptRuntime@@SA?AV?$vector@UScriptClassInfo@@V?$allocator@UScriptClassInfo@@@std@@@std@@AEBV?$basic_string@DU?$char_traits@D@std@@V?$allocator@D@2@@3@0AEAV43@@Z
?Dismiss@RuntimeUIScreenStack@@QEAA?AURuntimeUIStackEvent@@XZ
?DismissFailure@SceneManager@@QEAAXXZ
?DispatchEvents@Engine@@AEAAXXZ
?Dolly@Camera@@QEAAXM@Z
?DrainPendingPrewarm@ShaderManager@@AEAAX_N@Z
?DrawBox@DebugDraw@@YA_NAEAVScene@@AEBUOrientedBox@@AEBUColor@Math@@MW4DebugDrawDepthMode@@W4DebugDrawViewMask@@@Z
?DrawBox@DebugDraw@@YA_NAEAVScene@@AEBUVec3@Math@@1AEBUQuat@4@AEBUColor@4@MW4DebugDrawDepthMode@@W4DebugDrawViewMask@@@Z
?DrawCapsule@DebugDraw@@YA_NAEAVScene@@AEBUCapsuleShape@@AEBUColor@Math@@MW4DebugDrawDepthMode@@W4DebugDrawViewMask@@@Z
?DrawCollider@DebugDraw@@YA_NAEBVColliderComponent@@AEBUColor@Math@@MW4DebugDrawDepthMode@@W4DebugDrawViewMask@@@Z
?DrawLine@DebugDraw@@YA_NAEAVScene@@AEBUVec3@Math@@1AEBUColor@4@MW4DebugDrawDepthMode@@W4DebugDrawViewMask@@@Z
?DrawMesh@DebugDraw@@YA_NAEAVScene@@AEBV?$AssetHandle@VMeshAsset@@@@AEBUMat4@@AEBUColor@Math@@MW4DebugDrawDepthMode@@W4DebugDrawViewMask@@@Z
?DrawMesh@DebugDraw@@YA_NAEAVScene@@V?$shared_ptr@$$CBVDebugDrawMesh@@@std@@AEBUMat4@@AEBUColor@Math@@MW4DebugDrawDepthMode@@W4DebugDrawViewMask@@@Z
?DrawSphere@DebugDraw@@YA_NAEAVScene@@AEBUSphereShape@@AEBUColor@Math@@MW4DebugDrawDepthMode@@W4DebugDrawViewMask@@@Z
?DrawSphere@DebugDraw@@YA_NAEAVScene@@AEBUVec3@Math@@MAEBUColor@4@MW4DebugDrawDepthMode@@W4DebugDrawViewMask@@@Z
?Emit@Logger@@CAXPEBDAEBV?$basic_string@DU?$char_traits@D@std@@V?$allocator@D@2@@std@@@Z
?Emit@ParticleSystemComponent@@QEAAXI@Z
?Emit@UIEventBridge@@QEBAXPEAVUICanvas@@AEBUUIEvent@@@Z
?EmitScriptEvent@AngelScriptRuntime@@QEAA_NAEBV?$basic_string@DU?$char_traits@D@std@@V?$allocator@D@2@@std@@0@Z
?EmitScriptEvent@ScriptComponent@@QEAA_NAEBV?$basic_string@DU?$char_traits@D@std@@V?$allocator@D@2@@std@@0@Z
?EmitSound@NavigationWorld@@UEAAXAEBUVec3@Math@@MUActorHandle@@M@Z
?Empty@RuntimeUIScreenStack@@QEBA_NXZ
?EnablePlayPhase@Actor@@AEAAXXZ
?EnableRuntimeResourceBudget@SceneRenderLayer@@QEAA_NAEBURuntimeResourceBudgetConfig@@PEAV?$basic_string@DU?$char_traits@D@std@@V?$allocator@D@2@@std@@@Z
?EndAttack@HitboxComponent@@QEAAXXZ
?EndPlay@Actor@@AEAAXXZ
?EndPlay@Scene@@QEAAXXZ
?Enqueue@GpuUploadQueue@@QEAA_KV?$function@$$A6AXAEAVIRHIDevice@@@Z@std@@_K@Z
?Enqueue@SubtitleSystem@@QEAA_NUSubtitleCue@@PEAV?$basic_string@DU?$char_traits@D@std@@V?$allocator@D@2@@std@@@Z
?Enqueue@TaskService@@AEAAXW4TaskPriority@@UWorkItem@1@AEBV?$shared_ptr@VTaskStateBase@@@std@@@Z
?EnsureBuffers@GpuSceneDatabase@@AEAA_NIII@Z
?EnsureCanvasDocuments@UISystem@@AEAAXAEAVScene@@@Z
?EnsureClusterResources@ModernDeferredPipeline@@AEAA_NXZ
?EnsureHiZResources@ModernDeferredPipeline@@AEAA_NXZ
?EnsureIndirectBuffers@ModernDeferredPipeline@@AEAA_NI@Z
?EnsureMeshUploaded@MaterialResourceCache@@QEAAXPEAVMeshAsset@@@Z
?EnsureModernPipeline@Renderer@@AEAAXXZ
?EnsureNamedBindingDefaults@MaterialResourceCache@@QEAAXXZ
?EnsurePayloadLoaded@TextureAsset@@QEAA_NXZ
?EnsurePipelines@ModernDeferredPipeline@@AEAA_NXZ
?EnsureRayTracingPipelines@ModernDeferredPipeline@@AEAA_NXZ
?EnsureRayTracingResources@ModernDeferredPipeline@@AEAA_NXZ
?EnsureRayTracingScene@ModernDeferredPipeline@@AEAA_NXZ
?EnsureResources@DeferredLightingPass@@AEAA_NXZ
?EnsureResources@GBufferPass@@AEAA_NXZ
?EnsureResources@ParticleSystemComponent@@AEAAXXZ
?EnsureResources@RenderGraph@@AEAA_NXZ
?EnsureShaderArtifact@ShaderCacheService@@QEBA?AUShaderCacheResult@@AEBUShaderCacheRequest@@@Z
?EnsureShaderArtifacts@ShaderCacheService@@QEBA?AV?$vector@UShaderCacheResult@@V?$allocator@UShaderCacheResult@@@std@@@std@@AEBV?$vector@UShaderCacheRequest@@V?$allocator@UShaderCacheRequest@@@std@@@3@AEBV?$shared_ptr@VShaderCacheBatchCancellation@@@3@@Z
?EnsureShadowIndirectStream@ModernDeferredPipeline@@AEAA?AV?$shared_ptr@UShadowIndirectStream@ModernDeferredPipeline@@@std@@AEBV?$basic_string@DU?$char_traits@D@std@@V?$allocator@D@2@@3@@Z
?EnsureTemporalResources@ModernDeferredPipeline@@AEAA_NAEBUModernPostProcessSettings@@@Z
?EnsureTextureUploaded@MaterialResourceCache@@QEAAXPEAVTextureAsset@@@Z
?EnterBoot@GameFlowController@@QEAAXPEAVScene@@@Z
?EnterGameOver@GameFlowController@@QEAAXPEAVScene@@@Z
?EnterGameplay@GameFlowController@@QEAAXPEAVScene@@@Z
?EnterMainMenu@GameFlowController@@QEAAXPEAVScene@@@Z
?EntryCount@ContentArchiveReader@@QEBA_KXZ
?Enumerate@ContentPathPolicy@@SA_NAEBVpath@filesystem@std@@AEAV?$vector@UContentFileInfo@@V?$allocator@UContentFileInfo@@@std@@@4@AEA_KPEAV?$basic_string@DU?$char_traits@D@std@@V?$allocator@D@2@@4@AEBUContentLimits@@@Z
?Evaluate@RuntimePerformanceGate@@QEBA?AURuntimePerformanceReport@@XZ
?EvaluateVoiceAdmission@AudioEngine@@SA?AUAudioVoiceAdmission@@AEBV?$vector@UAudioVoiceCandidate@@V?$allocator@UAudioVoiceCandidate@@@std@@@std@@IAEBV?$basic_string@DU?$char_traits@D@std@@V?$allocator@D@2@@4@IH@Z
?Execute@DebugDrawPass@@UEAAXAEAVGpuCommandList@@AEBVScene@@AEBVCamera@@@Z
?Execute@DeferredLightingPass@@UEAAXAEAVGpuCommandList@@AEBVScene@@AEBVCamera@@@Z
?Execute@GBufferPass@@UEAAXAEAVGpuCommandList@@AEBVScene@@AEBVCamera@@@Z
?Execute@RenderGraph@@QEAA_NAEAVGpuCommandList@@PEAVGpuTimestampQueryPool@@I@Z
?ExecuteCompatibilityOnly@GBufferPass@@QEAAXAEAVGpuCommandList@@AEBVScene@@AEBVCamera@@@Z
?ExecuteCompatibilityOnly@GBufferPass@@QEAAXAEAVGpuCommandList@@AEBVScene@@AEBVCamera@@AEBUMat4@@3@Z
?ExecuteFiltered@GBufferPass@@AEAAXAEAVGpuCommandList@@AEBVScene@@AEBVCamera@@_NPEBUMat4@@4@Z
?ExecutePhase@WorldFrameScheduler@@AEAA_NW4WorldPhase@@AEAVScene@@M_N@Z
?ExecutePrepared@DebugDrawPass@@QEAAXAEAVGpuCommandList@@AEBVCamera@@@Z
?Exists@ContentArchiveReader@@QEBA_NAEBV?$basic_string@DU?$char_traits@D@std@@V?$allocator@D@2@@std@@@Z
?Exists@MountedFileSystem@@UEBA_NAEBV?$basic_string@DU?$char_traits@D@std@@V?$allocator@D@2@@std@@@Z
?Exists@PackageRootFileSystem@@UEBA_NAEBV?$basic_string@DU?$char_traits@D@std@@V?$allocator@D@2@@std@@@Z
?Exists@PakFileSystem@@UEBA_NAEBV?$basic_string@DU?$char_traits@D@std@@V?$allocator@D@2@@std@@@Z
?Exists@SaveGame@@SA_NAEBV?$basic_string@DU?$char_traits@D@std@@V?$allocator@D@2@@std@@@Z
?Extract@ContentArchive@@SA_NAEBVpath@filesystem@std@@0PEAV?$basic_string@DU?$char_traits@D@std@@V?$allocator@D@2@@4@@Z
?ExtractName@Asset@@CA?AV?$basic_string@DU?$char_traits@D@std@@V?$allocator@D@2@@std@@AEBV23@@Z
?FadeSoundVolume@AudioEngine@@QEAAX_KMI@Z
?FadeVolume@AudioSourceComponent@@QEAAXMI@Z
?FailRuntime@ScriptComponent@@QEAAXV?$basic_string@DU?$char_traits@D@std@@V?$allocator@D@2@@std@@@Z
?FileSize@ContentArchiveReader@@QEBA_KAEBV?$basic_string@DU?$char_traits@D@std@@V?$allocator@D@2@@std@@@Z
?FileSize@MountedFileSystem@@UEBA_KAEBV?$basic_string@DU?$char_traits@D@std@@V?$allocator@D@2@@std@@@Z
?FileSize@PackageRootFileSystem@@UEBA_KAEBV?$basic_string@DU?$char_traits@D@std@@V?$allocator@D@2@@std@@@Z
?FileSize@PakFileSystem@@UEBA_KAEBV?$basic_string@DU?$char_traits@D@std@@V?$allocator@D@2@@std@@@Z
?Final@Sha256@@QEAA?AV?$array@E$0CA@@std@@XZ
?FinalizeConstruction@Actor@@AEAAX_N@Z
?FinalizeCreated@Scene@@AEAAXAEBV?$vector@PEAVActor@@V?$allocator@PEAVActor@@@std@@@std@@@Z
?FinalizeFrameRecording@RenderGraph@@AEAA_NXZ
?Find@TypeRegistry@@QEBAPEBUTypeDescriptor@@AEBV?$basic_string@DU?$char_traits@D@std@@V?$allocator@D@2@@std@@@Z
?Find@TypeRegistry@@QEBAPEBUTypeDescriptor@@_K@Z
?FindAction@InputActionMap@@QEBAPEBUInputAction@@V?$basic_string_view@DU?$char_traits@D@std@@@std@@@Z
?FindBindingConflicts@Input@@SA?AV?$vector@UInputBindingConflict@@V?$allocator@UInputBindingConflict@@@std@@@std@@V?$basic_string_view@DU?$char_traits@D@std@@@3@_KW4InputBindingPart@@0@Z
?FindByID@Scene@@QEBAPEAVActor@@_K@Z
?FindByName@Scene@@QEBAPEAVActor@@AEBV?$basic_string@DU?$char_traits@D@std@@V?$allocator@D@2@@std@@@Z
?FindBySourcePath@AssetDatabase@@QEBAPEBUAssetRecord@@AEBV?$basic_string@DU?$char_traits@D@std@@V?$allocator@D@2@@std@@@Z
?FindByUuid@AssetDatabase@@QEBAPEBUAssetRecord@@AEBV?$basic_string@DU?$char_traits@D@std@@V?$allocator@D@2@@std@@@Z
?FindConflicts@InputActionMap@@QEBA?AV?$vector@UInputBindingConflict@@V?$allocator@UInputBindingConflict@@@std@@@std@@V?$basic_string_view@DU?$char_traits@D@std@@@3@_KW4InputBindingPart@@0@Z
?FindDefaultIconRoot@IconsManager@@AEBA?AVpath@filesystem@std@@XZ
?FindFreeGamepadSlot@Input@@CAHXZ
?FindGamepadSlot@Input@@CAHI@Z
?FindLatestAutosave@SaveGame@@SA_NAEAUSaveGameSlotInfo@@@Z
?FindMainCamera@GameViewport@@SAPEBVCameraComponent@@AEBVScene@@@Z
?FindPath@NavigationWorld@@UEBA_NAEBUVec3@Math@@0AEAV?$vector@UVec3@Math@@V?$allocator@UVec3@Math@@@std@@@std@@@Z
?FindProperty@ResolvedMaterial@@QEBAPEBUMaterialParam@@AEBV?$basic_string@DU?$char_traits@D@std@@V?$allocator@D@2@@std@@@Z
?FindProperty@TypeRegistry@@QEBAPEBUPropertyDescriptor@@AEBUTypeDescriptor@@AEBV?$basic_string@DU?$char_traits@D@std@@V?$allocator@D@2@@std@@@Z
?FindPropertyById@ShaderAsset@@QEBAPEBUShaderPropertyDesc@@AEBV?$basic_string@DU?$char_traits@D@std@@V?$allocator@D@2@@std@@@Z
?FindPropertyByName@ShaderAsset@@QEBAPEBUShaderPropertyDesc@@AEBV?$basic_string@DU?$char_traits@D@std@@V?$allocator@D@2@@std@@@Z
?FindShaderGraphNodeDefinition@@YAPEBUShaderGraphNodeDefinition@@AEBV?$basic_string@DU?$char_traits@D@std@@V?$allocator@D@2@@std@@@Z
?FindState@AnimatorController@@QEBAPEBUAnimatorState@@AEBV?$basic_string@DU?$char_traits@D@std@@V?$allocator@D@2@@std@@@Z
?FindTexture@ResolvedMaterial@@QEBA?AV?$AssetHandle@VTextureAsset@@@@AEBV?$basic_string@DU?$char_traits@D@std@@V?$allocator@D@2@@std@@@Z
?FinishLoading@GameFlowController@@QEAAXPEAVScene@@_N@Z
?FixedUpdate@Actor@@QEAAXM@Z
?Flash@GameplayFeedbackComponent@@QEAAXMM@Z
?Flush@Input@@SAXXZ
?FlushCommands@Scene@@QEAA_NXZ
?FlushPendingDestroy@Scene@@QEAAXXZ
?ForEach@Scene@@QEBAXAEBV?$function@$$A6AXAEAVActor@@@Z@std@@@Z
?ForEachComponent@Actor@@QEBAXAEBV?$function@$$A6AXAEAVComponent@@@Z@std@@@Z
?FrameArena@MemoryService@@QEAAAEAVLinearAllocator@@XZ
?FrameArena@MemoryService@@QEBAAEBVLinearAllocator@@XZ
?FrameBegin@MemoryService@@QEAAXXZ
?FrameDirection@SceneViewport@@QEAAXW4SceneViewDirection@@AEBUVec3@Math@@M@Z
?FrameTarget@SceneViewport@@QEAAXAEBUVec3@Math@@M@Z
?FrameTopologyMatches@RenderGraph@@AEBA_NXZ
?Free@MemoryService@@QEAAXPEAXPEBDH@Z
?Freeze@TypeRegistry@@QEAA_NPEAV?$basic_string@DU?$char_traits@D@std@@V?$allocator@D@2@@std@@@Z
?Freeze@WorldFrameScheduler@@QEAA_NPEAV?$basic_string@DU?$char_traits@D@std@@V?$allocator@D@2@@std@@@Z
?FromHex@Sha256@@SA_NAEBV?$basic_string@DU?$char_traits@D@std@@V?$allocator@D@2@@std@@AEAV?$array@E$0CA@@3@@Z
?FromJson@InputGlyphAtlas@@SA_NAEBV?$basic_json@Vmap@std@@Vvector@2@V?$basic_string@DU?$char_traits@D@std@@V?$allocator@D@2@@2@_N_J_KNVallocator@2@Uadl_serializer@json_abi_v3_11_3@nlohmann@@V?$vector@EV?$allocator@E@std@@@2@X@json_abi_v3_11_3@nlohmann@@AEAV1@PEAV?$basic_string@DU?$char_traits@D@std@@V?$allocator@D@2@@std@@@Z
?FromJson@RuntimePerformanceProfile@@SA_NV?$basic_json@Vmap@std@@Vvector@2@V?$basic_string@DU?$char_traits@D@std@@V?$allocator@D@2@@2@_N_J_KNVallocator@2@Uadl_serializer@json_abi_v3_11_3@nlohmann@@V?$vector@EV?$allocator@E@std@@@2@X@json_abi_v3_11_3@nlohmann@@AEAU1@PEAV?$basic_string@DU?$char_traits@D@std@@V?$allocator@D@2@@std@@@Z
?FromJson@RuntimeUIScreenConfig@@SA_NAEBV?$basic_json@Vmap@std@@Vvector@2@V?$basic_string@DU?$char_traits@D@std@@V?$allocator@D@2@@2@_N_J_KNVallocator@2@Uadl_serializer@json_abi_v3_11_3@nlohmann@@V?$vector@EV?$allocator@E@std@@@2@X@json_abi_v3_11_3@nlohmann@@AEAV1@PEAV?$basic_string@DU?$char_traits@D@std@@V?$allocator@D@2@@std@@@Z
?FromJson@RuntimeUserSettingsStore@@SA_NV?$basic_json@Vmap@std@@Vvector@2@V?$basic_string@DU?$char_traits@D@std@@V?$allocator@D@2@@2@_N_J_KNVallocator@2@Uadl_serializer@json_abi_v3_11_3@nlohmann@@V?$vector@EV?$allocator@E@std@@@2@X@json_abi_v3_11_3@nlohmann@@AEAURuntimeUserSettings@@PEAV?$basic_string@DU?$char_traits@D@std@@V?$allocator@D@2@@std@@@Z
?FromJson@SaveGame@@SA_NV?$basic_json@Vmap@std@@Vvector@2@V?$basic_string@DU?$char_traits@D@std@@V?$allocator@D@2@@2@_N_J_KNVallocator@2@Uadl_serializer@json_abi_v3_11_3@nlohmann@@V?$vector@EV?$allocator@E@std@@@2@X@json_abi_v3_11_3@nlohmann@@AEAUSaveGameData@@PEAV?$basic_string@DU?$char_traits@D@std@@V?$allocator@D@2@@std@@@Z
?FromText@InputGlyphAtlas@@SA_NAEBV?$basic_string@DU?$char_traits@D@std@@V?$allocator@D@2@@std@@AEAV1@PEAV23@@Z
?FromText@RuntimePerformanceProfile@@SA_NAEBV?$basic_string@DU?$char_traits@D@std@@V?$allocator@D@2@@std@@AEAU1@PEAV23@@Z
?FromText@RuntimeUIScreenConfig@@SA_NAEBV?$basic_string@DU?$char_traits@D@std@@V?$allocator@D@2@@std@@AEAV1@PEAV23@@Z
?GeneralHeap@MemoryService@@QEAAAEAVGeneralHeapAllocator@@XZ
?GeneralHeap@MemoryService@@QEBAAEBVGeneralHeapAllocator@@XZ
?GenerateCompressedMips@TextureAsset@@QEAAXXZ
?Get@AssetManager@@SAAEAV1@XZ
?Get@AudioEngine@@SAAEAV1@XZ
?Get@ComponentRegistry@@SAAEAV1@XZ
?Get@DebugDrawService@@SAAEAV1@XZ
?Get@GpuUploadQueue@@SAAEAV1@XZ
?Get@IconsManager@@SAAEAV1@XZ
?Get@MemoryService@@SAAEAV1@XZ
?Get@RuntimeFileSystem@@SAAEBVIReadOnlyFileSystem@@XZ
?Get@RuntimeQualityDegradation@@SA?AURuntimeQualityDegradationState@@XZ
?Get@ShaderCacheService@@SAAEAV1@XZ
?Get@ShaderManager@@SAAEAV1@XZ
?Get@TaskService@@SAAEAV1@XZ
?Get@TypeRegistry@@SAAEAV1@XZ
?GetAABB@MeshAsset@@QEBAAEBUAABB@Math@@XZ
?GetAccelerationStructure@RenderGraphResources@@QEBAPEAUGpuAccelerationStructure@@URGAccelerationStructureHandle@@@Z
?GetAccessibilitySettings@UISystem@@QEBAAEBUUIAccessibilitySettings@@XZ
?GetActionGlyphJson@Input@@SA?AV?$basic_string@DU?$char_traits@D@std@@V?$allocator@D@2@@std@@V?$basic_string_view@DU?$char_traits@D@std@@@3@@Z
?GetActionMapJson@Input@@SA?AV?$basic_json@Vmap@std@@Vvector@2@V?$basic_string@DU?$char_traits@D@std@@V?$allocator@D@2@@2@_N_J_KNVallocator@2@Uadl_serializer@json_abi_v3_11_3@nlohmann@@V?$vector@EV?$allocator@E@std@@@2@X@json_abi_v3_11_3@nlohmann@@XZ
?GetActions@InputActionMap@@QEBAAEBV?$vector@UInputAction@@V?$allocator@UInputAction@@@std@@@std@@XZ
?GetActiveEventBridge@UISystem@@AEAAPEAVUIEventBridge@@XZ
?GetActiveShaderBackend@ShaderManager@@QEBA?AW4ShaderBackend@@XZ
?GetActualVelocity@CharacterControllerComponent@@QEBAAEBUVec3@Math@@XZ
?GetAirControl@CharacterControllerComponent@@QEBAMXZ
?GetAliveCount@ParticleSystemComponent@@QEBA_KXZ
?GetAll@AssetDatabase@@QEBA?AV?$vector@UAssetRecord@@V?$allocator@UAssetRecord@@@std@@@std@@XZ
?GetAllActors@Scene@@QEBAAEBV?$vector@V?$unique_ptr@VActor@@U?$default_delete@VActor@@@std@@@std@@V?$allocator@V?$unique_ptr@VActor@@U?$default_delete@VActor@@@std@@@std@@@2@@std@@XZ
?GetAmbientIntensity@Scene@@QEBAMXZ
?GetAngularAxisLocks@RigidBodyComponent@@QEBAAEBUVec3@Math@@XZ
?GetAngularDamping@RigidBodyComponent@@QEBAMXZ
?GetAngularVelocity@RigidBodyComponent@@QEBAAEBUVec3@Math@@XZ
?GetAnimation@SkinnedMeshRendererComponent@@QEBAAEBUAnimationClip@@XZ
?GetAnimationTime@SkinnedMeshRendererComponent@@QEBAMXZ
?GetAntiAliasingStrength@PostProcessComponent@@QEBAMXZ
?GetAppliedShakeOffset@GameplayFeedbackComponent@@QEBAAEBUVec3@Math@@XZ
?GetAspect@Camera@@QEBAMXZ
?GetAspect@RenderViewport@@QEBAMXZ
?GetAssetCpuBudgetBytes@AssetManager@@QEBA_KXZ
?GetAssetID@AssetMeta@@QEBA_KXZ
?GetAssetPath@ParticleSystemComponent@@QEBAAEBV?$basic_string@DU?$char_traits@D@std@@V?$allocator@D@2@@std@@XZ
?GetAtlasPath@InputGlyphAtlas@@QEBAAEBV?$basic_string@DU?$char_traits@D@std@@V?$allocator@D@2@@std@@XZ
?GetAttackDamage@EnemyAIComponent@@QEBAMXZ
?GetAttackRange@EnemyAIComponent@@QEBAMXZ
?GetAxis1D@Input@@SAMV?$basic_string_view@DU?$char_traits@D@std@@@std@@@Z
?GetAxis2D@Input@@SA?AUVec2@Math@@V?$basic_string_view@DU?$char_traits@D@std@@@std@@@Z
?GetBlackTexture@AssetManager@@QEAA?AV?$AssetHandle@VTextureAsset@@@@XZ
?GetBlendDistance@ReflectionProbeComponent@@QEBAMXZ
?GetBlendDistance@SHProbeVolumeComponent@@QEBAMXZ
?GetBlendWeight@SkinnedMeshRendererComponent@@QEBAMXZ
?GetBloomIntensity@PostProcessComponent@@QEBAMXZ
?GetBloomThreshold@PostProcessComponent@@QEBAMXZ
?GetBodyType@RigidBodyComponent@@QEBA?AW4BodyType@@XZ
?GetBones@SkinnedMeshRendererComponent@@QEBAAEBV?$vector@UBone@@V?$allocator@UBone@@@std@@@std@@XZ
?GetBool@AnimatorComponent@@QEBA_NAEBV?$basic_string@DU?$char_traits@D@std@@V?$allocator@D@2@@std@@@Z
?GetBoxExtents@ReflectionProbeComponent@@QEBAAEBUVec3@Math@@XZ
?GetBoxExtents@SHProbeVolumeComponent@@QEBAAEBUVec3@Math@@XZ
?GetBudget@RuntimePerformanceGate@@QEBAAEBURuntimePerformanceBudget@@XZ
?GetBuffer@RenderGraphResources@@QEBAPEAUGpuBuffer@@URGBufferHandle@@@Z
?GetBufferView@RenderGraphResources@@QEBAPEAUGpuBufferView@@URGBufferHandle@@@Z
?GetBus@AudioSourceComponent@@QEBA?AW4AudioBus@@XZ
?GetBusPauseWithGame@AudioEngine@@QEBA_NW4AudioBus@@@Z
?GetBusVolume@AudioEngine@@QEBAMW4AudioBus@@@Z
?GetBytecode@ShaderAsset@@QEBAAEBV?$vector@EV?$allocator@E@std@@@std@@W4ShaderBackend@@W4ShaderPass@@W4ShaderStage@@@Z
?GetBytecode@ShaderAsset@@QEBAAEBV?$vector@EV?$allocator@E@std@@@std@@W4ShaderBackend@@W4ShaderStage@@@Z
?GetBytesPerReflectionProbe@LightingProbeAsset@@QEBA_KXZ
?GetCacheStats@AssetManager@@QEBA?AUAssetCacheStats@@XZ
?GetCachedPathsByType@AssetManager@@QEBA?AV?$vector@V?$basic_string@DU?$char_traits@D@std@@V?$allocator@D@2@@std@@V?$allocator@V?$basic_string@DU?$char_traits@D@std@@V?$allocator@D@2@@std@@@2@@std@@W4AssetType@@@Z
?GetCamUp@Camera@@QEBA?AUVec3@Math@@XZ
?GetCamera@GameViewport@@UEAAAEAVCamera@@XZ
?GetCamera@GameViewport@@UEBAAEBVCamera@@XZ
?GetCamera@SceneRenderLayer@@QEAAAEAVCamera@@XZ
?GetCamera@SceneRenderLayer@@QEBAAEBVCamera@@XZ
?GetCamera@SceneViewport@@UEAAAEAVCamera@@XZ
?GetCamera@SceneViewport@@UEBAAEBVCamera@@XZ
?GetCameraMode@Camera@@QEBA?AW4CameraMode@@XZ
?GetCameraShakeScale@RuntimeAccessibility@@SAMXZ
?GetCanvas@UICanvasComponent@@QEAAAEAVUICanvas@@XZ
?GetCanvas@UICanvasComponent@@QEBAAEBVUICanvas@@XZ
?GetCanvasSpace@UICanvas@@QEBA?AW4UICanvasSpace@@XZ
?GetCaptureOffset@ReflectionProbeComponent@@QEBAAEBUVec3@Math@@XZ
?GetCells@NavigationWorld@@UEBAAEBV?$vector@EV?$allocator@E@std@@@std@@XZ
?GetChildren@Actor@@QEBAAEBV?$vector@PEAVActor@@V?$allocator@PEAVActor@@@std@@@std@@XZ
?GetClassName@ScriptComponent@@QEBAAEBV?$basic_string@DU?$char_traits@D@std@@V?$allocator@D@2@@std@@XZ
?GetClassName@UIElementComponent@@QEBAAEBV?$basic_string@DU?$char_traits@D@std@@V?$allocator@D@2@@std@@XZ
?GetClearColor@CameraComponent@@QEBAAEBUVec3@Math@@XZ
?GetClip@AudioSourceComponent@@QEBA?AV?$AssetHandle@VAudioClipAsset@@@@XZ
?GetClipPath@AudioSourceComponent@@QEBAAEBV?$basic_string@DU?$char_traits@D@std@@V?$allocator@D@2@@std@@XZ
?GetColliderData@MeshAsset@@QEBAAEBUMeshColliderData@@XZ
?GetCollisionDetectionMode@RigidBodyComponent@@QEBA?AW4CollisionDetectionMode@@XZ
?GetCollisionRadius@ThirdPersonCameraComponent@@QEBAMXZ
?GetColor@LightComponent@@QEBAAEBUVec3@Math@@XZ
?GetComponentByTypeName@Actor@@QEBAPEAVComponent@@AEBV?$basic_string@DU?$char_traits@D@std@@V?$allocator@D@2@@std@@@Z
?GetCompressedBc3Mip@TextureAsset@@QEBAAEBV?$vector@EV?$allocator@E@std@@@std@@_K@Z
?GetCompressedMip@TextureAsset@@QEBAAEBV?$vector@EV?$allocator@E@std@@@std@@_K@Z
?GetConcurrencyGroup@AudioSourceComponent@@QEBAAEBV?$basic_string@DU?$char_traits@D@std@@V?$allocator@D@2@@std@@XZ
?GetConfig@RuntimeResourceBudgetController@@QEBAAEBURuntimeResourceBudgetConfig@@XZ
?GetContext@UICanvas@@QEBAPEAVContext@Rml@@XZ
?GetContrast@PostProcessComponent@@QEBAMXZ
?GetController@AnimatorComponent@@QEAAAEAVAnimatorController@@XZ
?GetController@AnimatorComponent@@QEBAAEBVAnimatorController@@XZ
?GetCookedShaderAbiVersion@ShaderAsset@@QEBAIXZ
?GetCpuTimings@RenderGraph@@QEBAAEBURenderGraphCpuTimings@@XZ
?GetCubeMesh@AssetManager@@QEAA?AV?$AssetHandle@VMeshAsset@@@@XZ
?GetCulledPasses@RenderGraph@@QEBAAEBV?$vector@V?$basic_string@DU?$char_traits@D@std@@V?$allocator@D@2@@std@@V?$allocator@V?$basic_string@DU?$char_traits@D@std@@V?$allocator@D@2@@std@@@2@@std@@XZ
?GetCurrentProcessWorkingSetBytes@@YA_KXZ
?GetCurrentProjection@ModernDeferredPipeline@@QEBAAEBUMat4@@XZ
?GetCurrentState@AnimatorComponent@@QEBAAEBV?$basic_string@DU?$char_traits@D@std@@V?$allocator@D@2@@std@@XZ
?GetCurrentViewProjection@ModernDeferredPipeline@@QEBAAEBUMat4@@XZ
?GetDamage@HitboxComponent@@QEBAMXZ
?GetDamageMultiplier@HurtboxComponent@@QEBAMXZ
?GetDebugDrawViewMask@RenderViewport@@QEBA?AW4DebugDrawViewMask@@XZ
?GetDebugDrawViewMask@Renderer@@QEBA?AW4DebugDrawViewMask@@XZ
?GetDebugView@RenderViewport@@QEBA?AW4RendererDebugView@@XZ
?GetDebugView@Renderer@@QEBA?AW4RendererDebugView@@XZ
?GetDefaultBudget@GpuUploadQueue@@QEBA?AUGpuUploadBudget@@XZ
?GetDefaultFontPaths@UICanvas@@QEBAAEBV?$vector@V?$basic_string@DU?$char_traits@D@std@@V?$allocator@D@2@@std@@V?$allocator@V?$basic_string@DU?$char_traits@D@std@@V?$allocator@D@2@@std@@@2@@std@@XZ
?GetDefaultFontPaths@UICanvasComponent@@QEBAAEBV?$vector@V?$basic_string@DU?$char_traits@D@std@@V?$allocator@D@2@@std@@V?$allocator@V?$basic_string@DU?$char_traits@D@std@@V?$allocator@D@2@@std@@@2@@std@@XZ
?GetDefaultLocale@InputGlyphAtlas@@QEBAAEBV?$basic_string@DU?$char_traits@D@std@@V?$allocator@D@2@@std@@XZ
?GetDefaultMaterial@AssetManager@@QEAA?AV?$AssetHandle@VMaterialAsset@@@@XZ
?GetDefaultTextureView@MaterialResourceCache@@QEAA?AV?$shared_ptr@UGpuTextureView@@@std@@XZ
?GetDeferredPayloadPath@TextureAsset@@QEBAAEBV?$basic_string@DU?$char_traits@D@std@@V?$allocator@D@2@@std@@XZ
?GetDefines@ShaderAsset@@QEBAAEBV?$vector@V?$basic_string@DU?$char_traits@D@std@@V?$allocator@D@2@@std@@V?$allocator@V?$basic_string@DU?$char_traits@D@std@@V?$allocator@D@2@@std@@@2@@std@@XZ
?GetDependencies@Asset@@QEBAAEBV?$vector@_KV?$allocator@_K@std@@@std@@XZ
?GetDependencies@AssetDatabase@@QEBA?AV?$vector@PEBUAssetRecord@@V?$allocator@PEBUAssetRecord@@@std@@@std@@AEBV?$basic_string@DU?$char_traits@D@std@@V?$allocator@D@2@@3@@Z
?GetDependencyHash@LightingProbeAsset@@QEBA_KXZ
?GetDesc@TextureAsset@@QEBAAEBUTextureDesc@@XZ
?GetDestination@NavAgentComponent@@QEBAAEBUVec3@Math@@XZ
?GetDestroyOnUse@InteractionComponent@@QEBA_NXZ
?GetDetectionRange@EnemyAIComponent@@QEBAMXZ
?GetDeviceProfile@RenderViewport@@QEBA?AW4GraphicsDeviceProfile@@XZ
?GetDeviceProfile@Renderer@@QEBA?AW4GraphicsDeviceProfile@@XZ
?GetDeviceProfile@SceneRenderLayer@@QEBA?AW4GraphicsDeviceProfile@@XZ
?GetDiagnostics@AudioEngine@@QEBA?AUAudioDiagnostics@@XZ
?GetDiagnostics@ScriptComponent@@QEBAAEBUScriptDiagnostics@@XZ
?GetDiagnostics@ShaderAsset@@QEBAAEBV?$vector@UShaderGraphDiagnostic@@V?$allocator@UShaderGraphDiagnostic@@@std@@@std@@XZ
?GetDiagnostics@UISystem@@QEBAAEBUUISystemDiagnostics@@XZ
?GetDirection@LightComponent@@QEBA?AUVec3@Math@@XZ
?GetDistance@ThirdPersonCameraComponent@@QEBAMXZ
?GetDocument@UICanvas@@QEBAPEAVElementDocument@Rml@@XZ
?GetDocumentPath@UICanvas@@QEBAAEBV?$basic_string@DU?$char_traits@D@std@@V?$allocator@D@2@@std@@XZ
?GetDocumentPath@UICanvasComponent@@QEBAAEBV?$basic_string@DU?$char_traits@D@std@@V?$allocator@D@2@@std@@XZ
?GetDomain@ShaderAsset@@QEBA?AW4ShaderDomain@@XZ
?GetEditorFlags@Actor@@QEBAIXZ
?GetEditorScene@SceneLayer@@QEAAAEAVScene@@XZ
?GetEditorScene@SceneLayer@@QEBAAEBVScene@@XZ
?GetEffectsHdrSrv@ModernDeferredPipeline@@QEBAAEBV?$shared_ptr@UGpuTextureView@@@std@@XZ
?GetElementID@UIElementComponent@@QEBAAEBV?$basic_string@DU?$char_traits@D@std@@V?$allocator@D@2@@std@@XZ
?GetEngine@Application@@QEAAAEAVEngine@@XZ
?GetEngine@Application@@QEBAAEBVEngine@@XZ
?GetEntryState@AnimatorController@@QEBAAEBV?$basic_string@DU?$char_traits@D@std@@V?$allocator@D@2@@std@@XZ
?GetEntryStats@WorldZoneStreamer@@QEBA?AV?$vector@UWorldZoneStreamEntryStats@@V?$allocator@UWorldZoneStreamEntryStats@@@std@@@std@@XZ
?GetEnvironmentColor@SkylightComponent@@QEBAAEBUVec3@Math@@XZ
?GetEnvironmentIntensity@SkylightComponent@@QEBAMXZ
?GetEstimatedAssetCpuBytes@AssetManager@@QEBA_KXZ
?GetEstimatedAssetCpuBytesByType@AssetManager@@QEBA_KW4AssetType@@@Z
?GetEventBridge@UISystem@@QEAAAEAVUIEventBridge@@XZ
?GetExecutionOrder@AudioListenerComponent@@UEBAHXZ
?GetExecutionOrder@Component@@UEBAHXZ
?GetExecutionOrder@EnemyAIComponent@@UEBAHXZ
?GetExecutionOrder@GameplayFeedbackComponent@@UEBAHXZ
?GetExecutionOrder@HitboxComponent@@UEBAHXZ
?GetExecutionOrder@NavAgentComponent@@UEBAHXZ
?GetExecutionOrder@RenderGraph@@QEBAAEBV?$vector@V?$basic_string@DU?$char_traits@D@std@@V?$allocator@D@2@@std@@V?$allocator@V?$basic_string@DU?$char_traits@D@std@@V?$allocator@D@2@@std@@@2@@std@@XZ
?GetExecutionOrder@ThirdPersonCameraComponent@@UEBAHXZ
?GetExecutionOrder@UICanvasComponent@@UEBAHXZ
?GetExecutionPassTypes@RenderGraph@@QEBAAEBV?$vector@W4PassType@RenderGraph@@V?$allocator@W4PassType@RenderGraph@@@std@@@std@@XZ
?GetExitCode@Engine@@QEBAHXZ
?GetExposure@PostProcessComponent@@QEBAMXZ
?GetExtension@AssetManager@@CA?AV?$basic_string@DU?$char_traits@D@std@@V?$allocator@D@2@@std@@AEBV23@@Z
?GetExtensionData@Component@@QEBAAEBV?$basic_json@Vmap@std@@Vvector@2@V?$basic_string@DU?$char_traits@D@std@@V?$allocator@D@2@@2@_N_J_KNVallocator@2@Uadl_serializer@json_abi_v3_11_3@nlohmann@@V?$vector@EV?$allocator@E@std@@@2@X@json_abi_v3_11_3@nlohmann@@XZ
?GetFar@Camera@@QEBAMXZ
?GetFarClip@CameraComponent@@QEBAMXZ
?GetFeatureMask@RenderViewport@@QEBA?AW4RendererFeatureMask@@XZ
?GetFeatureMask@Renderer@@QEBA?AW4RendererFeatureMask@@XZ
?GetFieldOfViewDegrees@EnemyAIComponent@@QEBAMXZ
?GetFields@AngelScriptRuntime@@QEBAAEBV?$vector@UScriptFieldInfo@@V?$allocator@UScriptFieldInfo@@@std@@@std@@XZ
?GetFields@ScriptComponent@@QEBAAEBV?$vector@UScriptFieldInfo@@V?$allocator@UScriptFieldInfo@@@std@@@std@@XZ
?GetFilter@TextureAsset@@QEBA?AW4TextureFilter@@XZ
?GetFinalPostSrv@ModernDeferredPipeline@@QEBAAEBV?$shared_ptr@UGpuTextureView@@@std@@XZ
?GetFixedDelta@WorldFrameScheduler@@QEBAMXZ
?GetFloat@AnimatorComponent@@QEBAMAEBV?$basic_string@DU?$char_traits@D@std@@V?$allocator@D@2@@std@@@Z
?GetFollowSharpness@ThirdPersonCameraComponent@@QEBAMXZ
?GetFormat@TextureAsset@@QEBA?AW4TextureFormat@@XZ
?GetForward@Camera@@QEBA?AUVec3@Math@@XZ
?GetFovY@Camera@@QEBAMXZ
?GetFovYDegrees@CameraComponent@@QEBAMXZ
?GetFrameScheduler@Scene@@QEAAAEAVWorldFrameScheduler@@XZ
?GetFrameScheduler@Scene@@QEBAAEBVWorldFrameScheduler@@XZ
?GetFrameStats@Engine@@QEBAAEBUFrameStats@@XZ
?GetFrameStats@MaterialResourceCache@@QEBAAEBUMaterialResourceCacheStats@@XZ
?GetFriction@RigidBodyComponent@@QEBAMXZ
?GetGameFlowController@Scene@@QEBAPEAVGameFlowController@@XZ
?GetGameFlowController@SceneLayer@@QEAAAEAVGameFlowController@@XZ
?GetGameFlowController@SceneLayer@@QEBAAEBVGameFlowController@@XZ
?GetGameViewport@SceneRenderLayer@@QEAAPEAVGameViewport@@XZ
?GetGameViewport@SceneRenderLayer@@QEBAPEBVGameViewport@@XZ
?GetGamepadAxis@Input@@SAMIW4SDL_GamepadAxis@@@Z
?GetGamepadCount@Input@@SAHXZ
?GetGamepadDeadZone@Input@@SAMXZ
?GetGamepadGlyphFamily@Input@@SAPEBDW4SDL_GamepadType@@@Z
?GetGamepadName@Input@@SAPEBDI@Z
?GetGamepadSensitivity@Input@@SAMXZ
?GetGamepadState@Input@@CAPEAUGamepadState@1@I@Z
?GetGamepadStateConst@Input@@CAPEBUGamepadState@1@I@Z
?GetGamma@PostProcessComponent@@QEBAMXZ
?GetGeneratedStylePaths@UICanvasComponent@@QEBAAEBV?$vector@V?$basic_string@DU?$char_traits@D@std@@V?$allocator@D@2@@std@@V?$allocator@V?$basic_string@DU?$char_traits@D@std@@V?$allocator@D@2@@std@@@2@@std@@XZ
?GetGeometryArena@GpuSceneDatabase@@QEAAAEAVGpuGeometryArena@@XZ
?GetGlyphFamilyName@Input@@SAPEBDXZ
?GetGlyphLocale@Input@@SAAEBV?$basic_string@DU?$char_traits@D@std@@V?$allocator@D@2@@std@@XZ
?GetGlyphSetName@Input@@SAPEBDXZ
?GetGpuBufferBytes@MeshAsset@@QEBA_KXZ
?GetGpuHandle@TextureAsset@@QEBAPEAXXZ
?GetGpuScene@ModernDeferredPipeline@@QEAAAEAVGpuSceneDatabase@@XZ
?GetGraph@ShaderAsset@@QEBAAEBUShaderGraph@@XZ
?GetGraphResources@DeferredLightingPass@@QEBA?AUGraphResources@1@XZ
?GetGraphResources@GBufferPass@@QEBA?AUGraphResources@1@XZ
?GetGraphicsSettings@ProjectConfig@@QEAAAEAUProjectGraphicsSettings@@XZ
?GetGraphicsSettings@ProjectConfig@@QEBAAEBUProjectGraphicsSettings@@XZ
?GetGridSpacing@SHProbeVolumeComponent@@QEBAMXZ
?GetGroundTint@SkylightComponent@@QEBAAEBUVec3@Math@@XZ
?GetHalfExtents@BoxColliderComponent@@QEBAAEBUVec3@Math@@XZ
?GetHalfHeight@CapsuleColliderComponent@@QEBAMXZ
?GetHandle@Actor@@QEBA?AUActorHandle@@XZ
?GetHandle@Scene@@QEBA?AUActorHandle@@_K@Z
?GetHdrSceneColorView@Renderer@@QEBAPEAUGpuTextureView@@XZ
?GetHdrSrv@ModernDeferredPipeline@@QEBAAEBV?$shared_ptr@UGpuTextureView@@@std@@XZ
?GetHealth@HealthComponent@@QEBAMXZ
?GetHeight@NavigationWorld@@UEBAIXZ
?GetHeight@TextureAsset@@QEBAHXZ
?GetHiZDebugSrv@ModernDeferredPipeline@@QEBAAEBV?$shared_ptr@UGpuTextureView@@@std@@XZ
?GetHistoryResetReason@ModernDeferredPipeline@@QEBAAEBV?$basic_string@DU?$char_traits@D@std@@V?$allocator@D@2@@std@@XZ
?GetHorizonTint@SkylightComponent@@QEBAAEBUVec3@Math@@XZ
?GetID@Actor@@QEBA_KXZ
?GetID@Asset@@QEBA_KXZ
?GetIconRoot@IconsManager@@QEBAAEBVpath@filesystem@std@@XZ
?GetIncompleteMetadataTypes@TypeRegistry@@QEBA?AV?$vector@V?$basic_string@DU?$char_traits@D@std@@V?$allocator@D@2@@std@@V?$allocator@V?$basic_string@DU?$char_traits@D@std@@V?$allocator@D@2@@std@@@2@@std@@XZ
?GetIndexBuffer@MeshAsset@@QEBAPEAUGpuBuffer@@XZ
?GetIndices@MeshAsset@@QEBAAEBV?$vector@IV?$allocator@I@std@@@std@@XZ
?GetInitializationError@ModernDeferredPipeline@@QEBAAEBV?$basic_string@DU?$char_traits@D@std@@V?$allocator@D@2@@std@@XZ
?GetInnerConeAngle@LightComponent@@QEBAMXZ
?GetInputMode@UICanvas@@QEBA?AW4UIInputMode@@XZ
?GetInputMode@UICanvasComponent@@QEBA?AW4UIInputMode@@XZ
?GetInputOwner@GameFlowController@@QEBA?AW4GameInputOwner@@XZ
?GetInputSettings@ProjectConfig@@QEAAAEAUProjectInputSettings@@XZ
?GetInputSettings@ProjectConfig@@QEBAAEBUProjectInputSettings@@XZ
?GetInspectorFields@ScriptComponent@@QEBAAEBV?$basic_json@Vmap@std@@Vvector@2@V?$basic_string@DU?$char_traits@D@std@@V?$allocator@D@2@@2@_N_J_KNVallocator@2@Uadl_serializer@json_abi_v3_11_3@nlohmann@@V?$vector@EV?$allocator@E@std@@@2@X@json_abi_v3_11_3@nlohmann@@XZ
?GetInstanceState@ScriptComponent@@QEBAAEBV?$basic_json@Vmap@std@@Vvector@2@V?$basic_string@DU?$char_traits@D@std@@V?$allocator@D@2@@2@_N_J_KNVallocator@2@Uadl_serializer@json_abi_v3_11_3@nlohmann@@V?$vector@EV?$allocator@E@std@@@2@X@json_abi_v3_11_3@nlohmann@@XZ
?GetIntensity@LightComponent@@QEBAMXZ
?GetIntensity@ReflectionProbeComponent@@QEBAMXZ
?GetIntensity@SHProbeVolumeComponent@@QEBAMXZ
?GetInverseMass@RigidBodyComponent@@QEBAMXZ
?GetInvertY@Input@@SA_NXZ
?GetJumpSpeed@CharacterControllerComponent@@QEBAMXZ
?GetKind@InteractionComponent@@QEBA?AW4InteractionKind@@XZ
?GetLanguage@ScriptComponent@@QEBAAEBV?$basic_string@DU?$char_traits@D@std@@V?$allocator@D@2@@std@@XZ
?GetLastActiveDevice@Input@@SA?AW4InputDeviceKind@@XZ
?GetLastCrashReportPath@CrashHandler@@SA?AV?$basic_string@DU?$char_traits@D@std@@V?$allocator@D@2@@std@@XZ
?GetLastDamage@HealthComponent@@QEBAAEBUDamageEvent@@XZ
?GetLastError@ProbeLightingSystem@@QEBAAEBV?$basic_string@DU?$char_traits@D@std@@V?$allocator@D@2@@std@@XZ
?GetLastError@RenderGraph@@QEBAAEBV?$basic_string@DU?$char_traits@D@std@@V?$allocator@D@2@@std@@XZ
?GetLastError@SceneManager@@QEBAAEBV?$basic_string@DU?$char_traits@D@std@@V?$allocator@D@2@@std@@XZ
?GetLastError@ScriptComponent@@QEBAAEBV?$basic_string@DU?$char_traits@D@std@@V?$allocator@D@2@@std@@XZ
?GetLastErrorCode@RenderGraph@@QEBA?AW4ErrorCode@1@XZ
?GetLastInstigator@InteractionComponent@@QEBA?AUActorHandle@@XZ
?GetLastReport@RuntimeResourceBudgetController@@QEBAAEBURuntimeResourceBudgetReport@@XZ
?GetLastShadowSetupError@ModernDeferredPipeline@@QEBAAEBV?$basic_string@DU?$char_traits@D@std@@V?$allocator@D@2@@std@@XZ
?GetLayer@Actor@@QEBAIXZ
?GetLayer@ColliderComponent@@QEBAIXZ
?GetLayerMask@ColliderComponent@@QEBAIXZ
?GetLayerMask@HitboxComponent@@QEBAIXZ
?GetLayerMask@ReflectionProbeComponent@@QEBAIXZ
?GetLayerMask@SHProbeVolumeComponent@@QEBAIXZ
?GetLayers@LayerStack@@QEAAAEAV?$vector@PEAVLayer@@V?$allocator@PEAVLayer@@@std@@@std@@XZ
?GetLayers@LayerStack@@QEBAAEBV?$vector@PEAVLayer@@V?$allocator@PEAVLayer@@@std@@@std@@XZ
?GetLifetimeGeneration@Scene@@QEBA_KXZ
?GetLifetimeToken@Asset@@QEBA?AV?$weak_ptr@X@std@@XZ
?GetLifetimeToken@Scene@@QEBA?AVSceneLifetimeToken@@XZ
?GetLightBuffer@GpuSceneDatabase@@QEBAAEBV?$shared_ptr@UGpuBuffer@@@std@@XZ
?GetLightType@LightComponent@@QEBA?AW4LightType@@XZ
?GetLightView@GpuSceneDatabase@@QEBAAEBV?$shared_ptr@UGpuBufferView@@@std@@XZ
?GetLightingProbeAssetPath@Scene@@QEBAAEBV?$basic_string@DU?$char_traits@D@std@@V?$allocator@D@2@@std@@XZ
?GetLightingProbeBakeSettings@Scene@@QEBAAEBULightingProbeBakeSettings@@XZ
?GetLights@GpuSceneDatabase@@QEBAAEBV?$vector@UGpuSceneLightData@@V?$allocator@UGpuSceneLightData@@@std@@@std@@XZ
?GetLinearAxisLocks@RigidBodyComponent@@QEBAAEBUVec3@Math@@XZ
?GetLinearDamping@RigidBodyComponent@@QEBAMXZ
?GetLinearSampler@MaterialResourceCache@@QEAA?AV?$shared_ptr@UGpuSampler@@@std@@XZ
?GetListenerForward@AudioEngine@@QEBAAEBUVec3@Math@@XZ
?GetListenerPosition@AudioEngine@@QEBAAEBUVec3@Math@@XZ
?GetListenerUp@AudioEngine@@QEBAAEBUVec3@Math@@XZ
?GetLod@MeshAsset@@QEBAAEBUMeshLod@@_K@Z
?GetLods@MeshAsset@@QEBAAEBV?$vector@UMeshLod@@V?$allocator@UMeshLod@@@std@@@std@@XZ
?GetLoop@AudioSourceComponent@@QEBA_NXZ
?GetMainCameraComponent@GameViewport@@QEBAPEBVCameraComponent@@XZ
?GetMainCameraHintActorID@Scene@@QEBA_KXZ
?GetManifestPath@ProjectConfig@@QEBAAEBVpath@filesystem@std@@XZ
?GetMass@RigidBodyComponent@@QEBAMXZ
?GetMasterVolume@AudioEngine@@QEBAMXZ
?GetMaterial@MeshRendererComponent@@QEBA?AV?$AssetHandle@VMaterialAsset@@@@XZ
?GetMaterial@ParticleSystemComponent@@QEBAPEAVMaterialAsset@@XZ
?GetMaterial@SkinnedMeshRendererComponent@@QEBA?AV?$AssetHandle@VMaterialAsset@@@@XZ
?GetMaterialBuffer@GpuSceneDatabase@@QEBAAEBV?$shared_ptr@UGpuBuffer@@@std@@XZ
?GetMaterialForSlot@MeshRendererComponent@@QEBA?AV?$AssetHandle@VMaterialAsset@@@@H@Z
?GetMaterialPreviewViewport@SceneRenderLayer@@QEAAPEAVSceneViewport@@XZ
?GetMaterialPreviewViewport@SceneRenderLayer@@QEBAPEBVSceneViewport@@XZ
?GetMaterialSampler@GpuSceneDatabase@@QEAA?AV?$shared_ptr@UGpuSampler@@@std@@XZ
?GetMaterialView@GpuSceneDatabase@@QEBAAEBV?$shared_ptr@UGpuBufferView@@@std@@XZ
?GetMaterials@GpuSceneDatabase@@QEBAAEBV?$vector@UGpuSceneMaterialData@@V?$allocator@UGpuSceneMaterialData@@@std@@@std@@XZ
?GetMaterials@MeshRendererComponent@@QEBAAEBV?$vector@V?$AssetHandle@VMaterialAsset@@@@V?$allocator@V?$AssetHandle@VMaterialAsset@@@@@std@@@std@@XZ
?GetMaxDistance@AudioSourceComponent@@QEBAMXZ
?GetMaxHealth@HealthComponent@@QEBAMXZ
?GetMaxInstances@AudioSourceComponent@@QEBAIXZ
?GetMaxSlopeAngle@CharacterControllerComponent@@QEBAMXZ
?GetMemoryDocumentSource@UICanvas@@QEBAAEBV?$basic_string@DU?$char_traits@D@std@@V?$allocator@D@2@@std@@XZ
?GetMesh@MeshRendererComponent@@QEBA?AV?$AssetHandle@VMeshAsset@@@@XZ
?GetMinDistance@AudioSourceComponent@@QEBAMXZ
?GetMipLevels@TextureAsset@@QEBAHXZ
?GetMips@TextureAsset@@QEBAAEBV?$vector@UTextureMipData@@V?$allocator@UTextureMipData@@@std@@@std@@XZ
?GetMouseRelX@Input@@SAHXZ
?GetMouseRelY@Input@@SAHXZ
?GetMouseSensitivity@Input@@SAMXZ
?GetMouseX@Input@@SAHXZ
?GetMouseY@Input@@SAHXZ
?GetMyEngineRuntimeInitializationCount@@YAIXZ
?GetName@Actor@@QEBAAEBV?$basic_string@DU?$char_traits@D@std@@V?$allocator@D@2@@std@@XZ
?GetName@Asset@@QEBAAEBV?$basic_string@DU?$char_traits@D@std@@V?$allocator@D@2@@std@@XZ
?GetName@ProjectConfig@@QEBAAEBV?$basic_string@DU?$char_traits@D@std@@V?$allocator@D@2@@std@@XZ
?GetName@Scene@@QEBAAEBV?$basic_string@DU?$char_traits@D@std@@V?$allocator@D@2@@std@@XZ
?GetNavMeshAssetPath@Scene@@QEBAAEBV?$basic_string@DU?$char_traits@D@std@@V?$allocator@D@2@@std@@XZ
?GetNavigationWorld@Scene@@QEAAAEAVISceneNavigationSubsystem@@XZ
?GetNavigationWorld@Scene@@QEBAAEBVISceneNavigationSubsystem@@XZ
?GetNear@Camera@@QEBAMXZ
?GetNearClip@CameraComponent@@QEBAMXZ
?GetNestedPrefabInstanceLocalId@Actor@@QEBAAEBV?$basic_string@DU?$char_traits@D@std@@V?$allocator@D@2@@std@@XZ
?GetNormalTexture@AssetManager@@QEAA?AV?$AssetHandle@VTextureAsset@@@@XZ
?GetNormalizedTime@AnimatorComponent@@QEBAMXZ
?GetObjectBuffer@GpuSceneDatabase@@QEBAAEBV?$shared_ptr@UGpuBuffer@@@std@@XZ
?GetObjectView@GpuSceneDatabase@@QEBAAEBV?$shared_ptr@UGpuBufferView@@@std@@XZ
?GetObjects@GpuSceneDatabase@@QEBAAEBV?$vector@UGpuSceneObjectData@@V?$allocator@UGpuSceneObjectData@@@std@@@std@@XZ
?GetObserverPosition@WorldZoneStreamer@@QEBAAEBUVec3@Math@@XZ
?GetOffset@HitboxComponent@@QEBAAEBUVec3@Math@@XZ
?GetOrCreate@ShaderManager@@QEAA?AV?$shared_ptr@UShaderHandle@@@std@@AEBV?$basic_string@DU?$char_traits@D@std@@V?$allocator@D@2@@3@PEBUVertexElement@@I@Z
?GetOrCreateCompute@ShaderManager@@QEAA?AV?$shared_ptr@UShaderHandle@@@std@@AEBV?$basic_string@DU?$char_traits@D@std@@V?$allocator@D@2@@3@@Z
?GetOrCreateGraphPipeline@GBufferPass@@AEAAPEAUGpuGraphicsPipeline@@AEBUResolvedMaterial@@AEBV?$shared_ptr@UShaderHandle@@@std@@@Z
?GetOrCreateInternal@ShaderManager@@AEAA?AV?$shared_ptr@UShaderHandle@@@std@@AEBV?$basic_string@DU?$char_traits@D@std@@V?$allocator@D@2@@3@W4ShaderPass@@PEBUVertexElement@@I_N@Z
?GetOrCreatePass@ShaderManager@@QEAA?AV?$shared_ptr@UShaderHandle@@@std@@AEBV?$basic_string@DU?$char_traits@D@std@@V?$allocator@D@2@@3@W4ShaderPass@@PEBUVertexElement@@I@Z
?GetOrCreatePipeline@DeferredLightingPass@@AEAAPEAUGpuGraphicsPipeline@@XZ
?GetOrCreatePipeline@GBufferPass@@AEAAPEAUGpuGraphicsPipeline@@AEBVMaterialAsset@@@Z
?GetOrCreateShader@DeferredLightingPass@@AEAAPEAUGpuShader@@XZ
?GetOrCreateShader@GBufferPass@@AEAAPEAUGpuShader@@XZ
?GetOrUpload@IconsManager@@QEAAPEAUGpuTextureView@@AEAVIRHIDevice@@V?$basic_string_view@DU?$char_traits@D@std@@@std@@HUIconColor@@@Z
?GetOrthoHeight@Camera@@QEBAMXZ
?GetOrthoWidth@Camera@@QEBAMXZ
?GetOuterConeAngle@LightComponent@@QEBAMXZ
?GetOutputView@RenderViewport@@QEBAPEAUGpuTextureView@@XZ
?GetOwnedAssetPins@Scene@@QEBAAEBV?$vector@V?$basic_string@DU?$char_traits@D@std@@V?$allocator@D@2@@std@@V?$allocator@V?$basic_string@DU?$char_traits@D@std@@V?$allocator@D@2@@std@@@2@@std@@XZ
?GetOwner@Component@@QEBAPEAVActor@@XZ
?GetParent@Actor@@QEBAPEAV1@XZ
?GetPassMask@ShaderAsset@@QEBAIXZ
?GetPassStage@ShaderAsset@@QEBAAEBUShaderStageSource@@W4ShaderPass@@W4ShaderStage@@@Z
?GetPath@Asset@@QEBAAEBV?$basic_string@DU?$char_traits@D@std@@V?$allocator@D@2@@std@@XZ
?GetPath@AssetDatabase@@QEBAAEBVpath@filesystem@std@@XZ
?GetPauseWhenUnfocused@SceneLayer@@QEBA_NXZ
?GetPersistentData@SceneManager@@QEBAAEBV?$basic_json@Vmap@std@@Vvector@2@V?$basic_string@DU?$char_traits@D@std@@V?$allocator@D@2@@2@_N_J_KNVallocator@2@Uadl_serializer@json_abi_v3_11_3@nlohmann@@V?$vector@EV?$allocator@E@std@@@2@X@json_abi_v3_11_3@nlohmann@@XZ
?GetPersistentValue@SceneManager@@QEBA?AV?$basic_json@Vmap@std@@Vvector@2@V?$basic_string@DU?$char_traits@D@std@@V?$allocator@D@2@@2@_N_J_KNVallocator@2@Uadl_serializer@json_abi_v3_11_3@nlohmann@@V?$vector@EV?$allocator@E@std@@@2@X@json_abi_v3_11_3@nlohmann@@AEBV?$basic_string@DU?$char_traits@D@std@@V?$allocator@D@2@@std@@AEBV234@@Z
?GetPhysicsWorld@Scene@@QEAAAEAVIScenePhysicsSubsystem@@XZ
?GetPhysicsWorld@Scene@@QEBAAEBVIScenePhysicsSubsystem@@XZ
?GetPipelineDiagnostics@RenderViewport@@QEBAAEBURenderPipelineDiagnostics@@XZ
?GetPipelineDiagnostics@Renderer@@QEBAAEBURenderPipelineDiagnostics@@XZ
?GetPipelineDiagnostics@SceneRenderLayer@@QEBAAEBURenderPipelineDiagnostics@@XZ
?GetPitch@AudioSourceComponent@@QEBAMXZ
?GetPixelData@TextureAsset@@QEBAAEBV?$vector@EV?$allocator@E@std@@@std@@XZ
?GetPlayOnStart@AudioSourceComponent@@QEBA_NXZ
?GetPlayScene@SceneLayer@@QEAAPEAVScene@@XZ
?GetPlayScene@SceneLayer@@QEBAPEBVScene@@XZ
?GetPosition@Camera@@QEBA?AUVec3@Math@@XZ
?GetPrefabAssetPath@Actor@@QEBAAEBV?$basic_string@DU?$char_traits@D@std@@V?$allocator@D@2@@std@@XZ
?GetPrefabAssetUuid@Actor@@QEBAAEBV?$basic_string@DU?$char_traits@D@std@@V?$allocator@D@2@@std@@XZ
?GetPrefabInstanceRoot@Actor@@QEBA?AUActorHandle@@XZ
?GetPrefabLocalId@Actor@@QEBAAEBV?$basic_string@DU?$char_traits@D@std@@V?$allocator@D@2@@std@@XZ
?GetPrefabOverrides@Actor@@QEBAAEBV?$basic_json@Vmap@std@@Vvector@2@V?$basic_string@DU?$char_traits@D@std@@V?$allocator@D@2@@2@_N_J_KNVallocator@2@Uadl_serializer@json_abi_v3_11_3@nlohmann@@V?$vector@EV?$allocator@E@std@@@2@X@json_abi_v3_11_3@nlohmann@@XZ
?GetPreloadAssets@Scene@@QEBAAEBV?$vector@V?$basic_string@DU?$char_traits@D@std@@V?$allocator@D@2@@std@@V?$allocator@V?$basic_string@DU?$char_traits@D@std@@V?$allocator@D@2@@std@@@2@@std@@XZ
?GetPreparedCommandCount@DebugDrawPass@@QEBA_KXZ
?GetPreparedDrawCount@DebugDrawPass@@QEBA_KXZ
?GetPreviousViewProjection@ModernDeferredPipeline@@QEBAAEBUMat4@@XZ
?GetPrimaryGamepadId@Input@@SAIXZ
?GetPriority@AudioSourceComponent@@QEBAHXZ
?GetPriority@ReflectionProbeComponent@@QEBAHXZ
?GetPriority@SHProbeVolumeComponent@@QEBAHXZ
?GetProbeId@ReflectionProbeComponent@@QEBAAEBV?$basic_string@DU?$char_traits@D@std@@V?$allocator@D@2@@std@@XZ
?GetProbeId@SHProbeVolumeComponent@@QEBAAEBV?$basic_string@DU?$char_traits@D@std@@V?$allocator@D@2@@std@@XZ
?GetProgress@SceneManager@@QEBAMXZ
?GetProj@Camera@@QEBAAEBUMat4@@XZ
?GetProjectId@ProjectConfig@@QEBAAEBV?$basic_string@DU?$char_traits@D@std@@V?$allocator@D@2@@std@@XZ
?GetProjectRoot@AssetManager@@QEBAAEBVpath@filesystem@std@@XZ
?GetProjectionMode@Camera@@QEBA?AW4ProjectionMode@@XZ
?GetPrompt@InteractionComponent@@QEBAAEBV?$basic_string@DU?$char_traits@D@std@@V?$allocator@D@2@@std@@XZ
?GetProperties@AngelScriptRuntime@@QEBAAEBV?$basic_json@Vmap@std@@Vvector@2@V?$basic_string@DU?$char_traits@D@std@@V?$allocator@D@2@@2@_N_J_KNVallocator@2@Uadl_serializer@json_abi_v3_11_3@nlohmann@@V?$vector@EV?$allocator@E@std@@@2@X@json_abi_v3_11_3@nlohmann@@XZ
?GetProperties@ScriptComponent@@QEBAAEBV?$basic_json@Vmap@std@@Vvector@2@V?$basic_string@DU?$char_traits@D@std@@V?$allocator@D@2@@2@_N_J_KNVallocator@2@Uadl_serializer@json_abi_v3_11_3@nlohmann@@V?$vector@EV?$allocator@E@std@@@2@X@json_abi_v3_11_3@nlohmann@@XZ
?GetProperties@ShaderAsset@@QEBAAEBV?$vector@UShaderPropertyDesc@@V?$allocator@UShaderPropertyDesc@@@std@@@std@@XZ
?GetProperty@TypeRegistry@@QEBA_NAEBVComponent@@AEBV?$basic_string@DU?$char_traits@D@std@@V?$allocator@D@2@@std@@AEAV?$basic_json@Vmap@std@@Vvector@2@V?$basic_string@DU?$char_traits@D@std@@V?$allocator@D@2@@2@_N_J_KNVallocator@2@Uadl_serializer@json_abi_v3_11_3@nlohmann@@V?$vector@EV?$allocator@E@std@@@2@X@json_abi_v3_11_3@nlohmann@@@Z
?GetPublishSettings@ProjectConfig@@QEAAAEAUProjectPublishSettings@@XZ
?GetPublishSettings@ProjectConfig@@QEBAAEBUProjectPublishSettings@@XZ
?GetQuadMesh@AssetManager@@QEAA?AV?$AssetHandle@VMeshAsset@@@@XZ
?GetRTAODebugSrv@ModernDeferredPipeline@@QEBAAEBV?$shared_ptr@UGpuTextureView@@@std@@XZ
?GetRTDiffuseDebugSrv@ModernDeferredPipeline@@QEBAAEBV?$shared_ptr@UGpuTextureView@@@std@@XZ
?GetRTReflectionAtrousRadiusScale@PostProcessComponent@@QEBAMXZ
?GetRTReflectionDebugSrv@ModernDeferredPipeline@@QEBAAEBV?$shared_ptr@UGpuTextureView@@@std@@XZ
?GetRTReflectionIntensityClamp@PostProcessComponent@@QEBAMXZ
?GetRTShadowDebugSrv@ModernDeferredPipeline@@QEBAAEBV?$shared_ptr@UGpuTextureView@@@std@@XZ
?GetRadius@CapsuleColliderComponent@@QEBAMXZ
?GetRadius@HitboxComponent@@QEBAMXZ
?GetRadius@SphereColliderComponent@@QEBAMXZ
?GetRange@InteractionComponent@@QEBAMXZ
?GetRange@LightComponent@@QEBAMXZ
?GetRayTracingEffectiveMask@ModernDeferredPipeline@@QEBAIXZ
?GetRayTracingEffectiveMask@RenderViewport@@QEBAIXZ
?GetRayTracingEffectiveMask@Renderer@@QEBAIXZ
?GetRayTracingEffectiveMask@SceneRenderLayer@@QEBAIXZ
?GetRayTracingFallbackReason@ModernDeferredPipeline@@QEBAAEBV?$basic_string@DU?$char_traits@D@std@@V?$allocator@D@2@@std@@XZ
?GetRayTracingFallbackReason@RenderViewport@@QEBA?AV?$basic_string@DU?$char_traits@D@std@@V?$allocator@D@2@@std@@XZ
?GetRayTracingFallbackReason@Renderer@@QEBA?AV?$basic_string@DU?$char_traits@D@std@@V?$allocator@D@2@@std@@XZ
?GetRayTracingFallbackReason@SceneRenderLayer@@QEBA?AV?$basic_string@DU?$char_traits@D@std@@V?$allocator@D@2@@std@@XZ
?GetRayTracingRequestedMask@ModernDeferredPipeline@@QEBAIXZ
?GetRayTracingRequestedMask@RenderViewport@@QEBAIXZ
?GetRayTracingRequestedMask@Renderer@@QEBAIXZ
?GetRayTracingRequestedMask@SceneRenderLayer@@QEBAIXZ
?GetRect@UIRectTransformComponent@@QEAAAEAURectTransform@@XZ
?GetRect@UIRectTransformComponent@@QEBAAEBURectTransform@@XZ
?GetReduceCameraShake@RuntimeAccessibility@@SA_NXZ
?GetReferencers@AssetDatabase@@QEBA?AV?$vector@PEBUAssetRecord@@V?$allocator@PEBUAssetRecord@@@std@@@std@@AEBV?$basic_string@DU?$char_traits@D@std@@V?$allocator@D@2@@3@@Z
?GetReflection@ShaderAsset@@QEBAAEBUCookedShaderStageReflection@@W4ShaderBackend@@W4ShaderPass@@W4ShaderStage@@@Z
?GetReflectionMetadataView@ProbeLightingSystem@@QEBAAEBV?$shared_ptr@UGpuBufferView@@@std@@XZ
?GetReflectionMipCount@LightingProbeAsset@@QEBAIXZ
?GetReflectionPixels@LightingProbeAsset@@QEBAAEBV?$vector@EV?$allocator@E@std@@@std@@XZ
?GetReflectionProbeCount@ProbeLightingSystem@@QEBAIXZ
?GetReflectionProbes@LightingProbeAsset@@QEBAAEBV?$vector@UBakedReflectionProbe@@V?$allocator@UBakedReflectionProbe@@@std@@@std@@XZ
?GetReflectionResolution@LightingProbeAsset@@QEBAIXZ
?GetReflectionTexture@ProbeLightingSystem@@QEBAPEAUGpuTexture@@XZ
?GetReflectionTextureView@ProbeLightingSystem@@QEBAAEBV?$shared_ptr@UGpuTextureView@@@std@@XZ
?GetRegisteredTypes@ComponentRegistry@@QEBA?AV?$vector@V?$basic_string@DU?$char_traits@D@std@@V?$allocator@D@2@@std@@V?$allocator@V?$basic_string@DU?$char_traits@D@std@@V?$allocator@D@2@@std@@@2@@std@@XZ
?GetRegisteredTypes@TypeRegistry@@QEBA?AV?$vector@V?$basic_string@DU?$char_traits@D@std@@V?$allocator@D@2@@std@@V?$allocator@V?$basic_string@DU?$char_traits@D@std@@V?$allocator@D@2@@std@@@2@@std@@XZ
?GetRenderContext@SceneRenderLayer@@QEBAPEAVIRHIContext@@XZ
?GetRenderMesh@SkinnedMeshRendererComponent@@QEBAPEAVMeshAsset@@XZ
?GetRenderPath@RenderViewport@@QEBA?AW4RenderPath@@XZ
?GetRenderPath@Renderer@@QEBA?AW4RenderPath@@XZ
?GetRenderPath@SceneRenderLayer@@QEBA?AW4RenderPath@@XZ
?GetRendererStats@FrameStatsProvider@@SA?AURendererFrameStats@@XZ
?GetRequestID@SceneManager@@QEBA_KXZ
?GetRequestedPath@SceneManager@@QEBAAEBV?$basic_string@DU?$char_traits@D@std@@V?$allocator@D@2@@std@@XZ
?GetResourceBudget@RenderGraph@@QEBAAEBURenderGraphResourceBudget@@XZ
?GetResourceStats@FrameStatsProvider@@SA?AURuntimeResourceFrameStats@@XZ
?GetResourceStats@RenderGraph@@QEBAAEBURenderGraphResourceStats@@XZ
?GetRestitution@RigidBodyComponent@@QEBAMXZ
?GetRevision@NavigationWorld@@UEBA_KXZ
?GetRight@Camera@@QEBA?AUVec3@Math@@XZ
?GetRoot@ProjectConfig@@QEBAAEBVpath@filesystem@std@@XZ
?GetRootActors@Scene@@QEBA?AV?$vector@PEAVActor@@V?$allocator@PEAVActor@@@std@@@std@@XZ
?GetRunState@SceneLayer@@QEBA?AW4SceneRunState@@XZ
?GetRuntimeResourceBudgetReport@SceneRenderLayer@@QEBAAEBURuntimeResourceBudgetReport@@XZ
?GetRuntimeScreen@UISystem@@QEBAAEBURuntimeUIScreenView@@XZ
?GetRuntimeScreenStack@SceneRenderLayer@@QEAAAEAVRuntimeUIScreenStack@@XZ
?GetRuntimeScreenStack@SceneRenderLayer@@QEBAAEBVRuntimeUIScreenStack@@XZ
?GetRuntimeScreensEnabled@SceneRenderLayer@@QEBA_NXZ
?GetSHCoefficientView@ProbeLightingSystem@@QEBAAEBV?$shared_ptr@UGpuBufferView@@@std@@XZ
?GetSHCoefficients@LightingProbeAsset@@QEBAAEBV?$vector@V?$array@M$03@std@@V?$allocator@V?$array@M$03@std@@@2@@std@@XZ
?GetSHVolumeCount@ProbeLightingSystem@@QEBAIXZ
?GetSHVolumeMetadataView@ProbeLightingSystem@@QEBAAEBV?$shared_ptr@UGpuBufferView@@@std@@XZ
?GetSHVolumes@LightingProbeAsset@@QEBAAEBV?$vector@UBakedSHProbeVolume@@V?$allocator@UBakedSHProbeVolume@@@std@@@std@@XZ
?GetSSAOBias@PostProcessComponent@@QEBAMXZ
?GetSSAOIntensity@PostProcessComponent@@QEBAMXZ
?GetSSAOPower@PostProcessComponent@@QEBAMXZ
?GetSSAORadius@PostProcessComponent@@QEBAMXZ
?GetSSAOSampleCount@PostProcessComponent@@QEBAIXZ
?GetSSAOScale@PostProcessComponent@@QEBAMXZ
?GetSSGIDebugSrv@ModernDeferredPipeline@@QEBAAEBV?$shared_ptr@UGpuTextureView@@@std@@XZ
?GetSSGIFilterRounds@PostProcessComponent@@QEBAIXZ
?GetSSGIHistoryWeight@PostProcessComponent@@QEBAMXZ
?GetSSGIIntensity@PostProcessComponent@@QEBAMXZ
?GetSSGIMaxDistance@PostProcessComponent@@QEBAMXZ
?GetSSGIStepCount@PostProcessComponent@@QEBAIXZ
?GetSSRDebugSrv@ModernDeferredPipeline@@QEBAAEBV?$shared_ptr@UGpuTextureView@@@std@@XZ
?GetSSRFilterRounds@PostProcessComponent@@QEBAIXZ
?GetSSRHistoryWeight@PostProcessComponent@@QEBAMXZ
?GetSSRMaxDistance@PostProcessComponent@@QEBAMXZ
?GetSSRMaxRoughness@PostProcessComponent@@QEBAMXZ
?GetSSRStepCount@PostProcessComponent@@QEBAIXZ
?GetSafeAreaInsets@UISystem@@QEBAAEBUUISafeAreaInsets@@XZ
?GetSamplerForTexture@MaterialResourceCache@@QEAA?AV?$shared_ptr@UGpuSampler@@@std@@PEAVTextureAsset@@@Z
?GetSaturation@PostProcessComponent@@QEBAMXZ
?GetScene@Actor@@QEBAPEAVScene@@XZ
?GetScene@SceneLayer@@QEAAAEAVScene@@XZ
?GetScene@SceneLayer@@QEBAAEBVScene@@XZ
?GetSceneActorBudget@MemoryService@@QEBA_KXZ
?GetSceneColorView@Renderer@@QEBAPEAUGpuTextureView@@XZ
?GetSceneColorView@SceneRenderLayer@@QEBAPEAUGpuTextureView@@XZ
?GetSceneDebugView@SceneRenderLayer@@QEBA?AW4RendererDebugView@@XZ
?GetSceneFilePath@SceneLayer@@QEBAAEBV?$basic_string@DU?$char_traits@D@std@@V?$allocator@D@2@@std@@XZ
?GetSceneGuid@LightingProbeAsset@@QEBAAEBV?$basic_string@DU?$char_traits@D@std@@V?$allocator@D@2@@std@@XZ
?GetSceneLiveActorCount@MemoryService@@QEBA_KXZ
?GetSceneManager@Scene@@QEBAPEAVSceneManager@@XZ
?GetSceneManager@SceneLayer@@QEAAAEAVSceneManager@@XZ
?GetSceneManager@SceneLayer@@QEBAAEBVSceneManager@@XZ
?GetSceneViewport@SceneRenderLayer@@QEAAPEAVSceneViewport@@XZ
?GetSceneViewport@SceneRenderLayer@@QEBAPEBVSceneViewport@@XZ
?GetSceneViewportRenderScene@SceneRenderLayer@@QEAAAEAVScene@@XZ
?GetSceneViewportRenderScene@SceneRenderLayer@@QEBAAEBVScene@@XZ
?GetSceneViewportUsesSimulationScene@SceneRenderLayer@@QEBA_NXZ
?GetScriptPath@ScriptComponent@@QEBAAEBV?$basic_string@DU?$char_traits@D@std@@V?$allocator@D@2@@std@@XZ
?GetSensitivity@ThirdPersonCameraComponent@@QEBAMXZ
?GetSettings@NavigationWorld@@UEBAAEBUNavMeshBakeSettings@@XZ
?GetSettings@ParticleSystemComponent@@QEAAAEAUParticleEmitterSettings@@XZ
?GetSettings@ParticleSystemComponent@@QEBAAEBUParticleEmitterSettings@@XZ
?GetSettingsPath@RuntimeUserSettingsStore@@SA?AVpath@filesystem@std@@XZ
?GetShaderCacheMode@ShaderManager@@QEBA?AW4ShaderCacheMode@@XZ
?GetShaderGraphNodeLibrary@@YAAEBV?$vector@UShaderGraphNodeDefinition@@V?$allocator@UShaderGraphNodeDefinition@@@std@@@std@@XZ
?GetShadingModel@ShaderAsset@@QEBA?AW4ShaderShadingModel@@XZ
?GetShadowIntensity@LightComponent@@QEBAMXZ
?GetShadowSampler@MaterialResourceCache@@QEAA?AV?$shared_ptr@UGpuSampler@@@std@@XZ
?GetShared@RuntimeFileSystem@@SA?AV?$shared_ptr@VIReadOnlyFileSystem@@@std@@XZ
?GetSimulationScene@SceneLayer@@QEAAAEAVScene@@XZ
?GetSimulationScene@SceneLayer@@QEBAAEBVScene@@XZ
?GetSkinMatrices@SkinnedMeshRendererComponent@@QEBAAEBV?$vector@UMat4@@V?$allocator@UMat4@@@std@@@std@@XZ
?GetSkyIntensity@SkylightComponent@@QEBAMXZ
?GetSkyTint@SkylightComponent@@QEBAAEBUVec3@Math@@XZ
?GetSnapshot@GameFlowController@@QEBAAEBUGameFlowSnapshot@@XZ
?GetSortOrder@UICanvas@@QEBAHXZ
?GetSortOrder@UICanvasComponent@@QEBAHXZ
?GetSource@ScriptComponent@@QEBAAEBV?$basic_string@DU?$char_traits@D@std@@V?$allocator@D@2@@std@@XZ
?GetSourceGlyphJson@Input@@SA?AV?$basic_string@DU?$char_traits@D@std@@V?$allocator@D@2@@std@@V?$basic_string_view@DU?$char_traits@D@std@@@3@@Z
?GetSourceHash@ShaderAsset@@QEBA_KXZ
?GetSourceMesh@SkinnedMeshRendererComponent@@QEBA?AV?$AssetHandle@VMeshAsset@@@@XZ
?GetSourceMode@ShaderAsset@@QEBA?AW4ShaderSourceMode@@XZ
?GetSourceMode@UICanvasComponent@@QEBA?AW4UICanvasSourceMode@@XZ
?GetSpatial@AudioSourceComponent@@QEBA_NXZ
?GetSpeed@NavAgentComponent@@QEBAMXZ
?GetStage@SceneManager@@QEBA?AW4SceneLoadState@@XZ
?GetStage@ShaderAsset@@QEBAAEBUShaderStageSource@@W4ShaderStage@@@Z
?GetStageMask@ShaderAsset@@QEBAIXZ
?GetStartupScene@ProjectConfig@@QEBAAEBV?$basic_string@DU?$char_traits@D@std@@V?$allocator@D@2@@std@@XZ
?GetState@Actor@@QEBA?AW4ActorState@@XZ
?GetState@AngelScriptRuntime@@QEBAAEBV?$basic_json@Vmap@std@@Vvector@2@V?$basic_string@DU?$char_traits@D@std@@V?$allocator@D@2@@2@_N_J_KNVallocator@2@Uadl_serializer@json_abi_v3_11_3@nlohmann@@V?$vector@EV?$allocator@E@std@@@2@X@json_abi_v3_11_3@nlohmann@@XZ
?GetState@Asset@@QEBA?AW4AssetState@@XZ
?GetState@EnemyAIComponent@@QEBA?AW4EnemyState@@XZ
?GetState@GameFlowController@@QEBA?AW4GameFlowState@@XZ
?GetState@Scene@@QEBA?AW4SceneState@@XZ
?GetState@SceneManager@@QEBA?AW4SceneLoadState@@XZ
?GetState@SubtitleSystem@@QEBAAEBUSubtitleState@@XZ
?GetStates@AnimatorController@@QEBAAEBV?$vector@UAnimatorState@@V?$allocator@UAnimatorState@@@std@@@std@@XZ
?GetStats@DebugDrawService@@QEBA?AUDebugDrawServiceStats@@XZ
?GetStats@GpuSceneDatabase@@QEBAAEBUGpuSceneDatabaseStats@@XZ
?GetStats@GpuUploadQueue@@QEBA?AUGpuUploadQueueStats@@XZ
?GetStats@ModernDeferredPipeline@@QEBAAEBUModernDeferredFrameStats@@XZ
?GetStats@RHIResourceStatsProvider@@SA?AURHIResourceStats@@XZ
?GetStats@TaskService@@QEBA?AUTaskServiceStats@@XZ
?GetStats@WorldFrameScheduler@@QEBAAEBUWorldSchedulerStats@@XZ
?GetStats@WorldZoneStreamer@@QEBA?AUWorldZoneStreamerStats@@XZ
?GetStatsJson@ScriptProfiler@@SA?AV?$basic_string@DU?$char_traits@D@std@@V?$allocator@D@2@@std@@XZ
?GetStepOffset@CharacterControllerComponent@@QEBAMXZ
?GetStoppingDistance@NavAgentComponent@@QEBAMXZ
?GetStorageRoot@RuntimeUserSettingsStore@@SA?AVpath@filesystem@std@@XZ
?GetStorageRoot@SaveGame@@SA?AVpath@filesystem@std@@XZ
?GetStreaming@AudioSourceComponent@@QEBA_NXZ
?GetStylePaths@UICanvas@@QEBAAEBV?$vector@V?$basic_string@DU?$char_traits@D@std@@V?$allocator@D@2@@std@@V?$allocator@V?$basic_string@DU?$char_traits@D@std@@V?$allocator@D@2@@std@@@2@@std@@XZ
?GetStylePaths@UICanvasComponent@@QEBAAEBV?$vector@V?$basic_string@DU?$char_traits@D@std@@V?$allocator@D@2@@std@@V?$allocator@V?$basic_string@DU?$char_traits@D@std@@V?$allocator@D@2@@std@@@2@@std@@XZ
?GetSubMeshes@MeshAsset@@QEBAAEBV?$vector@USubMesh@@V?$allocator@USubMesh@@@std@@@std@@XZ
?GetSubtitleState@SceneRenderLayer@@QEBAAEBUSubtitleState@@XZ
?GetSubtitleState@UISystem@@QEBAAEBUSubtitleState@@XZ
?GetSurfaceType@ShaderAsset@@QEBA?AW4ShaderSurfaceType@@XZ
?GetSystemOverlay@UISystem@@QEBAAEBUUISystemOverlayState@@XZ
?GetSystemOverlayState@SceneRenderLayer@@QEBAAEBUUISystemOverlayState@@XZ
?GetTAAHistoryAgeDebugSrv@ModernDeferredPipeline@@QEBAAEBV?$shared_ptr@UGpuTextureView@@@std@@XZ
?GetTAAHistoryClipExpansion@PostProcessComponent@@QEBAMXZ
?GetTAAHistoryWeight@PostProcessComponent@@QEBAMXZ
?GetTAAJitterSpread@PostProcessComponent@@QEBAMXZ
?GetTAARejectReasonDebugSrv@ModernDeferredPipeline@@QEBAAEBV?$shared_ptr@UGpuTextureView@@@std@@XZ
?GetTag@Actor@@QEBAAEBV?$basic_string@DU?$char_traits@D@std@@V?$allocator@D@2@@std@@XZ
?GetTarget@Camera@@QEBA?AUVec3@Math@@XZ
?GetTarget@EnemyAIComponent@@QEBA?AUActorHandle@@XZ
?GetTarget@ThirdPersonCameraComponent@@QEBA?AUActorHandle@@XZ
?GetTargetOffset@ThirdPersonCameraComponent@@QEBAAEBUVec3@Math@@XZ
?GetTeam@HitboxComponent@@QEBAIXZ
?GetTeam@HurtboxComponent@@QEBAIXZ
?GetTexture@RenderGraphResources@@QEBAPEAUGpuTexture@@URGTextureHandle@@@Z
?GetTextureView@DeferredLightingPass@@AEAA?AV?$shared_ptr@UGpuTextureView@@@std@@PEAUGpuTexture@@@Z
?GetTextureView@MaterialResourceCache@@QEAA?AV?$shared_ptr@UGpuTextureView@@@std@@PEAUGpuTexture@@@Z
?GetTimeScale@Scene@@QEBAMXZ
?GetTransform@Actor@@QEAAAEAUTransform@@XZ
?GetTransform@Actor@@QEBAAEBUTransform@@XZ
?GetTriangleMesh@AssetManager@@QEAA?AV?$AssetHandle@VMeshAsset@@@@XZ
?GetType@Asset@@QEBA?AW4AssetType@@XZ
?GetTypeName@AnimatorComponent@@UEBAPEBDXZ
?GetTypeName@AudioListenerComponent@@UEBAPEBDXZ
?GetTypeName@AudioSourceComponent@@UEBAPEBDXZ
?GetTypeName@BoxColliderComponent@@UEBAPEBDXZ
?GetTypeName@CameraComponent@@UEBAPEBDXZ
?GetTypeName@CapsuleColliderComponent@@UEBAPEBDXZ
?GetTypeName@CharacterControllerComponent@@UEBAPEBDXZ
?GetTypeName@Component@@UEBAPEBDXZ
?GetTypeName@EnemyAIComponent@@UEBAPEBDXZ
?GetTypeName@GameplayFeedbackComponent@@UEBAPEBDXZ
?GetTypeName@HealthComponent@@UEBAPEBDXZ
?GetTypeName@HitboxComponent@@UEBAPEBDXZ
?GetTypeName@HurtboxComponent@@UEBAPEBDXZ
?GetTypeName@InteractionComponent@@UEBAPEBDXZ
?GetTypeName@LightComponent@@UEBAPEBDXZ
?GetTypeName@MeshRendererComponent@@UEBAPEBDXZ
?GetTypeName@NavAgentComponent@@UEBAPEBDXZ
?GetTypeName@ParticleSystemComponent@@UEBAPEBDXZ
?GetTypeName@PostProcessComponent@@UEBAPEBDXZ
?GetTypeName@ReflectionProbeComponent@@UEBAPEBDXZ
?GetTypeName@RigidBodyComponent@@UEBAPEBDXZ
?GetTypeName@SHProbeVolumeComponent@@UEBAPEBDXZ
?GetTypeName@ScriptComponent@@UEBAPEBDXZ
?GetTypeName@SkinnedMeshRendererComponent@@UEBAPEBDXZ
?GetTypeName@SkylightComponent@@UEBAPEBDXZ
?GetTypeName@SphereColliderComponent@@UEBAPEBDXZ
?GetTypeName@ThirdPersonCameraComponent@@UEBAPEBDXZ
?GetTypeName@UIButtonComponent@@UEBAPEBDXZ
?GetTypeName@UICanvasComponent@@UEBAPEBDXZ
?GetTypeName@UIGridLayoutComponent@@UEBAPEBDXZ
?GetTypeName@UIImageComponent@@UEBAPEBDXZ
?GetTypeName@UIProgressBarComponent@@UEBAPEBDXZ
?GetTypeName@UIRectTransformComponent@@UEBAPEBDXZ
?GetTypeName@UIScrollViewComponent@@UEBAPEBDXZ
?GetTypeName@UISliderComponent@@UEBAPEBDXZ
?GetTypeName@UITextComponent@@UEBAPEBDXZ
?GetUISystemDiagnostics@SceneRenderLayer@@QEBAAEBUUISystemDiagnostics@@XZ
?GetUp@Camera@@QEBA?AUVec3@Math@@XZ
?GetUuid@Asset@@QEBAAEBV?$basic_string@DU?$char_traits@D@std@@V?$allocator@D@2@@std@@XZ
?GetVelocity@CharacterControllerComponent@@QEBAAEBUVec3@Math@@XZ
?GetVelocity@RigidBodyComponent@@QEBAAEBUVec3@Math@@XZ
?GetVersion@Asset@@QEBA_KXZ
?GetVersion@ProjectConfig@@QEBAHXZ
?GetVersionString@ShaderCompilerSlang@@SA?AV?$basic_string@DU?$char_traits@D@std@@V?$allocator@D@2@@std@@XZ
?GetVertexBuffer@MeshAsset@@QEBAPEAUGpuBuffer@@XZ
?GetVertices@MeshAsset@@QEBAAEBV?$vector@UMeshVertex@@V?$allocator@UMeshVertex@@@std@@@std@@XZ
?GetVibrationStrength@Input@@SAMXZ
?GetView@Camera@@QEBAAEBUMat4@@XZ
?GetView@RenderGraphResources@@QEBAPEAUGpuTextureView@@URGTextureHandle@@@Z
?GetView@RenderGraphResources@@QEBAPEAUGpuTextureView@@URGTextureHandle@@URGTextureSubresource@@@Z
?GetView@RuntimeUIScreenStack@@QEBA?AURuntimeUIScreenView@@XZ
?GetViewProj@Camera@@QEBA?AUMat4@@XZ
?GetViewportRect@RenderViewport@@QEBAXAEAH000@Z
?GetViewportRect@SceneRenderLayer@@QEBAXAEAH000@Z
?GetVignette@PostProcessComponent@@QEBAMXZ
?GetVolume@AudioSourceComponent@@QEBAMXZ
?GetWeights@SkinnedMeshRendererComponent@@QEBAAEBV?$vector@USkinWeight@@V?$allocator@USkinWeight@@@std@@@std@@XZ
?GetWhiteTexture@AssetManager@@QEAA?AV?$AssetHandle@VTextureAsset@@@@XZ
?GetWidth@NavigationWorld@@UEBAIXZ
?GetWidth@TextureAsset@@QEBAHXZ
?GetWindow@Application@@QEAAAEAVIWindow@@XZ
?GetWindow@Application@@QEBAAEBVIWindow@@XZ
?GetWorldBounds@BoxColliderComponent@@QEBA?AUAABB@Math@@XZ
?GetWorldBounds@CapsuleColliderComponent@@QEBA?AUAABB@Math@@XZ
?GetWorldBounds@SphereColliderComponent@@QEBA?AUAABB@Math@@XZ
?GetWorldHalfExtents@BoxColliderComponent@@QEBA?AUVec3@Math@@XZ
?GetWorldMatrix@Actor@@QEBA?AUMat4@@XZ
?GetWorldPosition@Actor@@QEBA?AUVec3@Math@@XZ
?GetWorldPosition@AudioSourceComponent@@AEBA?AUVec3@Math@@XZ
?GetWorldShape@BoxColliderComponent@@QEBA?AUOrientedBox@@XZ
?GetWorldShape@CapsuleColliderComponent@@QEBA?AUCapsuleShape@@XZ
?GetWorldShape@SphereColliderComponent@@QEBA?AUSphereShape@@XZ
?GetWrapU@TextureAsset@@QEBA?AW4TextureWrap@@XZ
?GetWrapV@TextureAsset@@QEBA?AW4TextureWrap@@XZ
?GetZoneCount@Scene@@QEBA_KXZ
?GetZoneLifetimeToken@Scene@@QEBA?AVSceneLifetimeToken@@_K@Z
?GetZoneStats@Scene@@QEBA?AV?$vector@UWorldZoneStats@@V?$allocator@UWorldZoneStats@@@std@@@std@@XZ
?GetZoneStreamer@Scene@@QEAAAEAVWorldZoneStreamer@@XZ
?GetZoneStreamer@Scene@@QEBAAEBVWorldZoneStreamer@@XZ
?HandleRuntimeScreenEvent@SceneRenderLayer@@AEAAXAEBURuntimeUIStackEvent@@@Z
?HasComponentType@Actor@@QEBA_NAEBV?$basic_string@DU?$char_traits@D@std@@V?$allocator@D@2@@std@@@Z
?HasD3DShaderStageCompiler@@YA_NXZ
?HasDeferredPayload@TextureAsset@@QEBA_NXZ
?HasExternalGpuBufferReferences@MeshAsset@@QEBA_NXZ
?HasFilePath@SceneLayer@@QEBA_NXZ
?HasGpuHandle@TextureAsset@@QEBA_NXZ
?HasIndices@MeshAsset@@QEBA_NXZ
?HasMainCamera@GameViewport@@QEBA_NXZ
?HasManifest@ProjectConfig@@QEBA_NXZ
?HasPass@ShaderAsset@@QEBA_NW4ShaderPass@@@Z
?HasPath@NavAgentComponent@@QEBA_NXZ
?HasPauseReason@GameFlowController@@QEBA_NW4GamePauseReason@@@Z
?HasPlayWorld@SceneLayer@@QEBA_NXZ
?HasResolver@ShaderCacheService@@QEBA_NXZ
?HasSceneNavigationSubsystemFactory@@YA_NXZ
?HasScenePhysicsSubsystemFactory@@YA_NXZ
?HasTag@Actor@@QEBA_NAEBV?$basic_string@DU?$char_traits@D@std@@V?$allocator@D@2@@std@@@Z
?HashFile@ContentArchive@@SA?AV?$basic_string@DU?$char_traits@D@std@@V?$allocator@D@2@@std@@AEBVpath@filesystem@3@PEAV23@@Z
?HashFile@Sha256@@SA?AV?$basic_string@DU?$char_traits@D@std@@V?$allocator@D@2@@std@@AEBVpath@filesystem@3@PEAV23@@Z
?Heal@HealthComponent@@QEAA_NM@Z
?HighWatermark@LinearAllocator@@QEBA_KXZ
?ImportAccelerationStructure@RenderGraph@@QEAA?AURGAccelerationStructureHandle@@AEBV?$basic_string@DU?$char_traits@D@std@@V?$allocator@D@2@@std@@AEBV?$shared_ptr@UGpuAccelerationStructure@@@4@@Z
?ImportBuffer@RenderGraph@@QEAA?AURGBufferHandle@@AEBV?$basic_string@DU?$char_traits@D@std@@V?$allocator@D@2@@std@@AEBV?$shared_ptr@UGpuBuffer@@@4@W4RHIResourceState@@2@Z
?ImportBuffer@RenderGraph@@QEAA?AURGBufferHandle@@AEBV?$basic_string@DU?$char_traits@D@std@@V?$allocator@D@2@@std@@AEBV?$shared_ptr@UGpuBuffer@@@4@W4RHIResourceState@@@Z
?ImportTexture@RenderGraph@@QEAA?AURGTextureHandle@@AEBV?$basic_string@DU?$char_traits@D@std@@V?$allocator@D@2@@std@@AEBV?$shared_ptr@UGpuTexture@@@4@AEBV?$shared_ptr@UGpuTextureView@@@4@W4RHIResourceState@@3@Z
?ImportTexture@RenderGraph@@QEAA?AURGTextureHandle@@AEBV?$basic_string@DU?$char_traits@D@std@@V?$allocator@D@2@@std@@AEBV?$shared_ptr@UGpuTexture@@@4@W4RHIResourceState@@2@Z
?ImportTexture@RenderGraph@@QEAA?AURGTextureHandle@@AEBV?$basic_string@DU?$char_traits@D@std@@V?$allocator@D@2@@std@@AEBV?$shared_ptr@UGpuTexture@@@4@W4RHIResourceState@@@Z
?IncrementVersion@Asset@@IEAAXXZ
?IndexCount@MeshAsset@@QEBAIXZ
?Init@AudioEngine@@QEAA_NXZ
?Init@Engine@@QEAAXXZ
?Init@LinearAllocator@@QEAA_N_K@Z
?Init@MemoryService@@QEAAXXZ
?Initialize@GameViewport@@UEAAXHH@Z
?Initialize@RenderViewport@@UEAAXHH@Z
?Initialize@SceneViewport@@UEAAXHH@Z
?Initialize@UISystem@@QEAA_NPEAVIRHIDevice@@PEAVIRHIFrameContext@@@Z
?InitializeMyEngineRuntimeModules@@YAXXZ
?Install@CrashHandler@@SAXAEBV?$basic_string@DU?$char_traits@D@std@@V?$allocator@D@2@@std@@@Z
?Instantiate@PrefabSystem@@SAPEAVActor@@AEAVScene@@AEBVpath@filesystem@std@@AEBUPrefabInstantiateOptions@@PEAV?$basic_string@DU?$char_traits@D@std@@V?$allocator@D@2@@6@@Z
?InstantiateLoadPlan@SceneSerializer@@SA_NAEAVScene@@AEBUSceneLoadPlan@@AEAUSceneInstantiationState@@_KAEA_NPEAV?$basic_string@DU?$char_traits@D@std@@V?$allocator@D@2@@std@@@Z
?InstantiateLoadPlanAdditive@SceneSerializer@@SA_NAEAVScene@@AEBUSceneLoadPlan@@AEAUSceneInstantiationState@@_KAEAV?$vector@UActorHandle@@V?$allocator@UActorHandle@@@std@@@std@@AEA_NPEAV?$basic_string@DU?$char_traits@D@std@@V?$allocator@D@2@@6@@Z
?Interact@InteractionComponent@@QEAA_NUActorHandle@@@Z
?InvalidateGpuBuffers@MeshAsset@@QEAAXXZ
?InvalidateMaterialPreview@SceneRenderLayer@@QEAAXXZ
?InvalidateTemporalHistory@ModernDeferredPipeline@@QEAAXV?$basic_string@DU?$char_traits@D@std@@V?$allocator@D@2@@std@@_N@Z
?InvalidateTemporalHistory@RenderViewport@@QEAAXAEBV?$basic_string@DU?$char_traits@D@std@@V?$allocator@D@2@@std@@_N@Z
?InvalidateTemporalHistory@Renderer@@QEAAXAEBV?$basic_string@DU?$char_traits@D@std@@V?$allocator@D@2@@std@@_N@Z
?InvokeLoader@AssetManager@@AEBA?AV?$shared_ptr@VAsset@@@std@@AEBV?$basic_string@DU?$char_traits@D@std@@V?$allocator@D@2@@3@AEBV?$function@$$A6A?AV?$shared_ptr@VAsset@@@std@@AEBV?$basic_string@DU?$char_traits@D@std@@V?$allocator@D@2@@2@@Z@3@@Z
?IsActionDown@Input@@SA_NV?$basic_string_view@DU?$char_traits@D@std@@@std@@@Z
?IsActionPressed@Input@@SA_NV?$basic_string_view@DU?$char_traits@D@std@@@std@@@Z
?IsActionReleased@Input@@SA_NV?$basic_string_view@DU?$char_traits@D@std@@@std@@@Z
?IsActive@Actor@@QEBA_NXZ
?IsActive@GameplayFeedbackComponent@@QEBA_NXZ
?IsActiveInHierarchy@Actor@@QEBA_NXZ
?IsActiveSelf@Actor@@QEBA_NXZ
?IsAttackActive@HitboxComponent@@QEBA_NXZ
?IsAvailable@ShaderCompilerSlang@@SA_NXZ
?IsBackendCompiled@@YA_NW4RenderBackend@@@Z
?IsBaked@NavigationWorld@@UEBA_NXZ
?IsBloomEnabled@PostProcessComponent@@QEBA_NXZ
?IsBusMuted@AudioEngine@@QEBA_NW4AudioBus@@@Z
?IsCompatible@MaterialSystem@@SA_NAEBUShaderPropertyDesc@@AEBUMaterialParam@@@Z
?IsCompiled@ScriptComponent@@QEBA_NXZ
?IsCompute@ShaderAsset@@QEBA_NXZ
?IsCooked@ShaderAsset@@QEBA_NXZ
?IsDead@HealthComponent@@QEBA_NXZ
?IsDirty@SceneLayer@@QEBA_NXZ
?IsDynamic@RigidBodyComponent@@QEBA_NXZ
?IsEditing@SceneLayer@@QEBA_NXZ
?IsEnabled@Component@@QEBA_NXZ
?IsErrorMaterial@ResolvedMaterial@@QEBA_NXZ
?IsFailed@Asset@@QEBA_NXZ
?IsFenceComplete@GpuUploadQueue@@QEBA_N_K@Z
?IsFrozen@TypeRegistry@@QEBA_NXZ
?IsGameViewportActive@SceneRenderLayer@@QEBA_NXZ
?IsGamepadButtonDown@Input@@SA_NIW4SDL_GamepadButton@@@Z
?IsGamepadButtonPressed@Input@@SA_NIW4SDL_GamepadButton@@@Z
?IsGamepadButtonReleased@Input@@SA_NIW4SDL_GamepadButton@@@Z
?IsGamepadConnected@Input@@SA_NI@Z
?IsGamepadSubsystemReady@Input@@CA_NXZ
?IsGameplayInputEnabled@Input@@SA_NXZ
?IsGraph@ShaderAsset@@QEBA_NXZ
?IsGrounded@CharacterControllerComponent@@QEBA_NXZ
?IsHardwareRayTracingEnabled@RenderViewport@@QEBA_NXZ
?IsHardwareRayTracingEnabled@Renderer@@QEBA_NXZ
?IsHardwareRayTracingEnabled@SceneRenderLayer@@QEBA_NXZ
?IsInitialized@AudioEngine@@QEBA_NXZ
?IsInitialized@LinearAllocator@@QEBA_NXZ
?IsInitialized@MemoryService@@QEBA_NXZ
?IsInputEnabled@RenderViewport@@QEBA_NXZ
?IsInteractive@UICanvas@@QEBA_NXZ
?IsInteractive@UICanvasComponent@@QEBA_NXZ
?IsKeyDown@Input@@SA_NH@Z
?IsKeyPressed@Input@@SA_NH@Z
?IsKeyReleased@Input@@SA_NH@Z
?IsKinematic@RigidBodyComponent@@QEBA_NXZ
?IsLayerFaulted@Engine@@AEBA_NPEBVLayer@@@Z
?IsLegacyLua@ScriptComponent@@QEBA_NXZ
?IsLoaded@AssetManager@@QEBA_NAEBV?$basic_string@DU?$char_traits@D@std@@V?$allocator@D@2@@std@@@Z
?IsLoaded@AssetManager@@QEBA_N_K@Z
?IsLoading@SceneManager@@QEBA_NXZ
?IsMainCamera@CameraComponent@@QEBA_NXZ
?IsModal@RuntimeUIScreenStack@@QEBA_NXZ
?IsMouseDown@Input@@SA_NH@Z
?IsMousePressed@Input@@SA_NH@Z
?IsMouseReleased@Input@@SA_NH@Z
?IsOrthographic@SceneViewport@@QEBA_NXZ
?IsPaused@AudioEngine@@QEBA_NXZ
?IsPaused@GameFlowController@@QEBA_NXZ
?IsPaused@SceneLayer@@QEBA_NXZ
?IsPayloadResident@TextureAsset@@QEBA_NXZ
?IsPendingDestroy@Actor@@QEBA_NXZ
?IsPinned@AssetManager@@QEBA_NAEBV?$basic_string@DU?$char_traits@D@std@@V?$allocator@D@2@@std@@@Z
?IsPlaying@AudioEngine@@QEBA_N_K@Z
?IsPlaying@AudioSourceComponent@@QEBA_NXZ
?IsPlaying@ParticleSystemComponent@@QEBA_NXZ
?IsPlaying@Scene@@QEBA_NXZ
?IsPlaying@SceneLayer@@QEBA_NXZ
?IsPlaying@SkinnedMeshRendererComponent@@QEBA_NXZ
?IsPrefabInstance@Actor@@QEBA_NXZ
?IsPrefabRoot@Actor@@QEBA_NXZ
?IsPrimary@AudioListenerComponent@@QEBA_NXZ
?IsReady@Asset@@QEBA_NXZ
?IsReady@ModernDeferredPipeline@@QEBA_NXZ
?IsRegistered@ComponentRegistry@@QEBA_NAEBV?$basic_string@DU?$char_traits@D@std@@V?$allocator@D@2@@std@@@Z
?IsSSAOHalfResolution@PostProcessComponent@@QEBA_NXZ
?IsSSGIEnabled@PostProcessComponent@@QEBA_NXZ
?IsSSGIHalfResolution@PostProcessComponent@@QEBA_NXZ
?IsSSREnabled@PostProcessComponent@@QEBA_NXZ
?IsSSRHalfResolution@PostProcessComponent@@QEBA_NXZ
?IsSafeScenePath@SceneManager@@CA_NAEBV?$basic_string@DU?$char_traits@D@std@@V?$allocator@D@2@@std@@@Z
?IsSceneViewportActive@SceneRenderLayer@@QEBA_NXZ
?IsSilent@AudioEngine@@QEBA_NXZ
?IsSingleUse@InteractionComponent@@QEBA_NXZ
?IsSleeping@RigidBodyComponent@@QEBA_NXZ
?IsStatic@Actor@@QEBA_NXZ
?IsSubtitlePresented@SceneRenderLayer@@QEBA_NXZ
?IsSubtitlePresented@UISystem@@QEBA_NXZ
?IsSupportedDeviceProfile@ProjectConfig@@SA_NV?$basic_string_view@DU?$char_traits@D@std@@@std@@@Z
?IsSupportedGraphicsBackend@ProjectConfig@@SA_NV?$basic_string_view@DU?$char_traits@D@std@@@std@@@Z
?IsSupportedRenderPath@ProjectConfig@@SA_NV?$basic_string_view@DU?$char_traits@D@std@@@std@@@Z
?IsSystemOverlayDocumentLoaded@UISystem@@QEBA_NXZ
?IsTAAEnabled@PostProcessComponent@@QEBA_NXZ
?IsToneMappingEnabled@PostProcessComponent@@QEBA_NXZ
?IsTraversing@Scene@@QEBA_NXZ
?IsTrigger@ColliderComponent@@QEBA_NXZ
?IsUploaded@MeshAsset@@QEBA_NXZ
?IsValid@MeshRendererComponent@@QEBA_NXZ
?IsValid@SkinnedMeshRendererComponent@@QEBA_NXZ
?IsVisible@Camera@@QEBA_NAEBUAABB@Math@@@Z
?IsVisible@UICanvas@@QEBA_NXZ
?IsVisible@UICanvasComponent@@QEBA_NXZ
?IsWalkable@NavigationWorld@@UEBA_NAEBUVec3@Math@@@Z
?IsWindowFocused@SceneLayer@@QEBA_NXZ
?IsWithin@ProjectConfig@@CA_NAEBVpath@filesystem@std@@0@Z
?Jump@CharacterControllerComponent@@QEAA_NM@Z
?LateUpdate@Actor@@QEAAXM@Z
?LightingProbeFloatToHalf@@YAGM@Z
?LightingProbeHalfToFloat@@YAMG@Z
?ListFiles@ContentArchiveReader@@QEBA?AV?$vector@V?$basic_string@DU?$char_traits@D@std@@V?$allocator@D@2@@std@@V?$allocator@V?$basic_string@DU?$char_traits@D@std@@V?$allocator@D@2@@std@@@2@@std@@AEBV?$basic_string@DU?$char_traits@D@std@@V?$allocator@D@2@@3@@Z
?ListFiles@MountedFileSystem@@UEBA?AV?$vector@V?$basic_string@DU?$char_traits@D@std@@V?$allocator@D@2@@std@@V?$allocator@V?$basic_string@DU?$char_traits@D@std@@V?$allocator@D@2@@std@@@2@@std@@AEBV?$basic_string@DU?$char_traits@D@std@@V?$allocator@D@2@@3@@Z
?ListFiles@PackageRootFileSystem@@UEBA?AV?$vector@V?$basic_string@DU?$char_traits@D@std@@V?$allocator@D@2@@std@@V?$allocator@V?$basic_string@DU?$char_traits@D@std@@V?$allocator@D@2@@std@@@2@@std@@AEBV?$basic_string@DU?$char_traits@D@std@@V?$allocator@D@2@@3@@Z
?ListFiles@PakFileSystem@@UEBA?AV?$vector@V?$basic_string@DU?$char_traits@D@std@@V?$allocator@D@2@@std@@V?$allocator@V?$basic_string@DU?$char_traits@D@std@@V?$allocator@D@2@@std@@@2@@std@@AEBV?$basic_string@DU?$char_traits@D@std@@V?$allocator@D@2@@3@@Z
?ListSlots@SaveGame@@SA?AV?$vector@USaveGameSlotInfo@@V?$allocator@USaveGameSlotInfo@@@std@@@std@@XZ
?Load@AngelScriptRuntime@@QEAA_NAEBV?$basic_string@DU?$char_traits@D@std@@V?$allocator@D@2@@std@@00AEBV?$basic_json@Vmap@std@@Vvector@2@V?$basic_string@DU?$char_traits@D@std@@V?$allocator@D@2@@2@_N_J_KNVallocator@2@Uadl_serializer@json_abi_v3_11_3@nlohmann@@V?$vector@EV?$allocator@E@std@@@2@X@json_abi_v3_11_3@nlohmann@@1AEAV23@@Z
?Load@AssetMeta@@SA?AV?$optional@UAssetMeta@@@std@@AEBV?$basic_string@DU?$char_traits@D@std@@V?$allocator@D@2@@3@PEAV43@@Z
?Load@CookManifest@@SA_NAEBVpath@filesystem@std@@AEAU1@PEAV?$basic_string@DU?$char_traits@D@std@@V?$allocator@D@2@@4@@Z
?Load@PrefabAsset@@SA_NAEBVpath@filesystem@std@@AEAU1@PEAV?$basic_string@DU?$char_traits@D@std@@V?$allocator@D@2@@4@@Z
?Load@RuntimeDependencyManifest@@SA_NAEBVpath@filesystem@std@@AEAU1@PEAV?$basic_string@DU?$char_traits@D@std@@V?$allocator@D@2@@4@@Z
?Load@RuntimeUserSettingsStore@@SA_NAEAURuntimeUserSettings@@PEA_NPEAV?$basic_string@DU?$char_traits@D@std@@V?$allocator@D@2@@std@@@Z
?LoadActionMapFromFile@Input@@SA_NAEBVpath@filesystem@std@@PEAV?$basic_string@DU?$char_traits@D@std@@V?$allocator@D@2@@4@@Z
?LoadAsset@AssetManager@@QEAA?AV?$shared_ptr@VAsset@@@std@@AEBV?$basic_string@DU?$char_traits@D@std@@V?$allocator@D@2@@3@@Z
?LoadAsset@ProbeLightingSystem@@AEAA_NAEBV?$basic_string@DU?$char_traits@D@std@@V?$allocator@D@2@@std@@@Z
?LoadAsync@AssetManager@@QEAA?AV?$TaskHandle@V?$shared_ptr@VAsset@@@std@@@@AEBV?$basic_string@DU?$char_traits@D@std@@V?$allocator@D@2@@std@@@Z
?LoadCanvasFonts@UISystem@@AEAAXAEAVScene@@@Z
?LoadDocument@UICanvas@@QEAA_NAEBV?$basic_string@DU?$char_traits@D@std@@V?$allocator@D@2@@std@@@Z
?LoadDocument@UICanvasComponent@@QEAA_NAEBV?$basic_string@DU?$char_traits@D@std@@V?$allocator@D@2@@std@@@Z
?LoadDocumentFromMemory@UICanvas@@QEAA_NAEBV?$basic_string@DU?$char_traits@D@std@@V?$allocator@D@2@@std@@0@Z
?LoadEngineFallbackFonts@UISystem@@AEAAXXZ
?LoadFileSource@ScriptComponent@@AEAA_NAEAV?$basic_string@DU?$char_traits@D@std@@V?$allocator@D@2@@std@@@Z
?LoadFileSource@ScriptComponent@@AEAA_NXZ
?LoadFromFile@InputActionMap@@QEAA_NAEBVpath@filesystem@std@@PEAV?$basic_string@DU?$char_traits@D@std@@V?$allocator@D@2@@4@@Z
?LoadFromFile@SceneSerializer@@SA_NAEAVScene@@AEBV?$basic_string@DU?$char_traits@D@std@@V?$allocator@D@2@@std@@@Z
?LoadFromJson@InputActionMap@@QEAA_NAEBV?$basic_json@Vmap@std@@Vvector@2@V?$basic_string@DU?$char_traits@D@std@@V?$allocator@D@2@@2@_N_J_KNVallocator@2@Uadl_serializer@json_abi_v3_11_3@nlohmann@@V?$vector@EV?$allocator@E@std@@@2@X@json_abi_v3_11_3@nlohmann@@PEAV?$basic_string@DU?$char_traits@D@std@@V?$allocator@D@2@@std@@@Z
?LoadFromString@SceneSerializer@@SA_NAEAVScene@@AEBV?$basic_string@DU?$char_traits@D@std@@V?$allocator@D@2@@std@@@Z
?LoadGlyphAtlasFromFile@Input@@SA_NAEBVpath@filesystem@std@@PEAV?$basic_string@DU?$char_traits@D@std@@V?$allocator@D@2@@4@@Z
?LoadGlyphAtlasFromText@Input@@SA_NAEBV?$basic_string@DU?$char_traits@D@std@@V?$allocator@D@2@@std@@PEAV23@@Z
?LoadLightingProbeAssetFromFile@@YA?AV?$shared_ptr@VLightingProbeAsset@@@std@@AEBV?$basic_string@DU?$char_traits@D@std@@V?$allocator@D@2@@2@@Z
?LoadMaterialAssetFromFile@@YA?AV?$shared_ptr@VMaterialAsset@@@std@@AEBV?$basic_string@DU?$char_traits@D@std@@V?$allocator@D@2@@2@@Z
?LoadModelCacheAssetFromFile@@YA?AV?$shared_ptr@VModelAsset@@@std@@AEBV?$basic_string@DU?$char_traits@D@std@@V?$allocator@D@2@@2@@Z
?LoadNavMeshAssetFromFile@@YA?AV?$shared_ptr@VNavMeshAsset@@@std@@AEBV?$basic_string@DU?$char_traits@D@std@@V?$allocator@D@2@@2@@Z
?LoadOrCreate@AssetMeta@@SA?AU1@AEBV?$basic_string@DU?$char_traits@D@std@@V?$allocator@D@2@@std@@@Z
?LoadRuntimeScreenConfig@SceneRenderLayer@@QEAA_NAEBV?$basic_string@DU?$char_traits@D@std@@V?$allocator@D@2@@std@@PEAV23@@Z
?LoadScene@SceneLayer@@QEAA_NAEBV?$basic_string@DU?$char_traits@D@std@@V?$allocator@D@2@@std@@@Z
?LoadScriptAssetFromFile@@YA?AV?$shared_ptr@VScriptAsset@@@std@@AEBV?$basic_string@DU?$char_traits@D@std@@V?$allocator@D@2@@2@@Z
?LoadShaderAssetFromFile@@YA?AV?$shared_ptr@VShaderAsset@@@std@@AEBV?$basic_string@DU?$char_traits@D@std@@V?$allocator@D@2@@2@@Z
?LogAssetMemorySummary@AssetManager@@QEBAXXZ
?LookAt@Camera@@QEAAXAEBUVec3@Math@@00@Z
?MakeEffectConstants@ModernDeferredPipeline@@AEBA?AUScreenSpaceConstants@1@II@Z
?MakeKey@ShaderManager@@AEBA?AV?$basic_string@DU?$char_traits@D@std@@V?$allocator@D@2@@std@@AEBVShaderAsset@@W4ShaderPass@@PEBUVertexElement@@I_N@Z
?MakePixelKey@IconsManager@@AEBA?AV?$basic_string@DU?$char_traits@D@std@@V?$allocator@D@2@@std@@V?$basic_string_view@DU?$char_traits@D@std@@@3@HUIconColor@@@Z
?MakeProjectRelativePath@AssetManager@@QEBA?AV?$basic_string@DU?$char_traits@D@std@@V?$allocator@D@2@@std@@AEBV23@@Z
?MakeSamplerBindingName@MaterialSystem@@SA?AV?$basic_string@DU?$char_traits@D@std@@V?$allocator@D@2@@std@@AEBV23@@Z
?MakeTextureBindingName@MaterialSystem@@SA?AV?$basic_string@DU?$char_traits@D@std@@V?$allocator@D@2@@std@@AEBV23@@Z
?MakeUploadKey@IconsManager@@AEBA?AV?$basic_string@DU?$char_traits@D@std@@V?$allocator@D@2@@std@@W4RHIBackend@@V?$basic_string_view@DU?$char_traits@D@std@@@3@HUIconColor@@@Z
?MarkActorTreeDirty@UISystem@@QEAAX_K@Z
?MarkDirty@SceneLayer@@QEAAXXZ
?MarkGraphResourcesShaderResource@DeferredLightingPass@@QEAAXXZ
?MarkGraphResourcesShaderResource@GBufferPass@@QEAAXXZ
?MarkLayerFaulted@Engine@@AEAAXPEBVLayer@@PEBD1@Z
?MarkLegacyLua@ScriptComponent@@AEAAXXZ
?MarkPendingDestroy@Actor@@AEAAXXZ
?MarkReady@LightingProbeAsset@@QEAAXXZ
?MarkReady@ShaderAsset@@QEAAXXZ
?Mat4Invert@@YA_NAEBUMat4@@AEAU1@@Z
?MaxQueuedCues@SubtitleSystem@@2_KB
?MaybeWarnAssetBudget@AssetManager@@AEBAXXZ
?MergeRecordedFrame@RenderGraph@@AEAAXXZ
?MetaPathFor@AssetMeta@@SA?AV?$basic_string@DU?$char_traits@D@std@@V?$allocator@D@2@@std@@AEBV23@@Z
?Migrate@JsonMigrationRegistry@@QEBA_NAEAV?$basic_json@Vmap@std@@Vvector@2@V?$basic_string@DU?$char_traits@D@std@@V?$allocator@D@2@@2@_N_J_KNVallocator@2@Uadl_serializer@json_abi_v3_11_3@nlohmann@@V?$vector@EV?$allocator@E@std@@@2@X@json_abi_v3_11_3@nlohmann@@PEAV?$basic_string@DU?$char_traits@D@std@@V?$allocator@D@2@@std@@@Z
?Move@CharacterControllerComponent@@QEAAXAEBUVec3@Math@@@Z
?MoveActorInternal@Scene@@AEAA_NPEAVActor@@00@Z
?MoveChildBefore@Actor@@AEAA_NPEAV1@0@Z
?MoveFocus@RuntimeUIScreenStack@@QEAA?AURuntimeUIStackEvent@@H@Z
?MoveForward@Camera@@QEAAXM@Z
?MoveRight@Camera@@QEAAXM@Z
?MoveRootActorBefore@Scene@@AEAA_NPEAVActor@@0@Z
?MoveUp@Camera@@QEAAXM@Z
?Name@Layer@@QEBAAEBV?$basic_string@DU?$char_traits@D@std@@V?$allocator@D@2@@std@@XZ
?NewScene@SceneLayer@@QEAAXAEBV?$basic_string@DU?$char_traits@D@std@@V?$allocator@D@2@@std@@@Z
?Normalize@MountedFileSystem@@AEBA?AV?$basic_string@DU?$char_traits@D@std@@V?$allocator@D@2@@std@@AEBV23@@Z
?NormalizeEntryPath@ContentArchiveReader@@CA?AV?$basic_string@DU?$char_traits@D@std@@V?$allocator@D@2@@std@@AEBV23@@Z
?NormalizePath@AssetDatabase@@CA?AV?$basic_string@DU?$char_traits@D@std@@V?$allocator@D@2@@std@@AEBV23@@Z
?NormalizePath@AssetManager@@AEBA?AV?$basic_string@DU?$char_traits@D@std@@V?$allocator@D@2@@std@@AEBV23@@Z
?Offset@LinearAllocator@@QEBA_KXZ
?OnAnimationEvent@AudioSourceComponent@@UEAAXAEBUAnimationEventData@@@Z
?OnAnimationEvent@Component@@UEAAXAEBUAnimationEventData@@@Z
?OnAnimationEvent@HitboxComponent@@UEAAXAEBUAnimationEventData@@@Z
?OnAnimationEvent@ParticleSystemComponent@@UEAAXAEBUAnimationEventData@@@Z
?OnAnimationEvent@ScriptComponent@@UEAAXAEBUAnimationEventData@@@Z
?OnAttach@Component@@UEAAXXZ
?OnAttach@Layer@@UEAAXXZ
?OnAttach@SceneLayer@@UEAAXXZ
?OnAttach@SceneRenderLayer@@UEAAXXZ
?OnAttach@ScriptComponent@@UEAAXXZ
?OnBeforeLayersCleared@Application@@MEAAXXZ
?OnBeginPlay@AnimatorComponent@@UEAAXXZ
?OnBeginPlay@AudioSourceComponent@@UEAAXXZ
?OnBeginPlay@Component@@UEAAXXZ
?OnBeginPlay@HealthComponent@@UEAAXXZ
?OnBeginPlay@ParticleSystemComponent@@UEAAXXZ
?OnBeginPlay@ScriptComponent@@UEAAXXZ
?OnCollisionEvent@Component@@UEAAXAEBUCollisionEvent@@@Z
?OnCollisionEvent@ScriptComponent@@UEAAXAEBUCollisionEvent@@@Z
?OnComponentEnabledChanged@Actor@@AEAAXAEAVComponent@@_N@Z
?OnDetach@AudioSourceComponent@@UEAAXXZ
?OnDetach@Component@@UEAAXXZ
?OnDetach@Layer@@UEAAXXZ
?OnDetach@SceneLayer@@UEAAXXZ
?OnDetach@SceneRenderLayer@@UEAAXXZ
?OnDetach@ScriptComponent@@UEAAXXZ
?OnDisable@AudioSourceComponent@@UEAAXXZ
?OnDisable@Component@@UEAAXXZ
?OnDisable@ScriptComponent@@UEAAXXZ
?OnEnable@Component@@UEAAXXZ
?OnEnable@ScriptComponent@@UEAAXXZ
?OnEndPlay@AudioSourceComponent@@UEAAXXZ
?OnEndPlay@Component@@UEAAXXZ
?OnEndPlay@GameplayFeedbackComponent@@UEAAXXZ
?OnEndPlay@ParticleSystemComponent@@UEAAXXZ
?OnEndPlay@ScriptComponent@@UEAAXXZ
?OnEvent@Layer@@UEAAXAEAUEvent@@@Z
?OnEvent@SceneLayer@@UEAAXAEAUEvent@@@Z
?OnEvent@SceneRenderLayer@@UEAAXAEAUEvent@@@Z
?OnFixedUpdate@Component@@UEAAXM@Z
?OnFixedUpdate@HitboxComponent@@UEAAXM@Z
?OnFixedUpdate@ScriptComponent@@UEAAXM@Z
?OnGamepadAdded@Input@@SAXI@Z
?OnGamepadAxis@Input@@SAXIW4SDL_GamepadAxis@@F@Z
?OnGamepadButton@Input@@SAXIW4SDL_GamepadButton@@_N@Z
?OnGamepadRemoved@Input@@SAXI@Z
?OnInit@Application@@MEAA_NXZ
?OnInitialize@Component@@UEAAXXZ
?OnKeyDown@Input@@SAXH@Z
?OnKeyUp@Input@@SAXH@Z
?OnLateUpdate@AudioListenerComponent@@UEAAXM@Z
?OnLateUpdate@Component@@UEAAXM@Z
?OnLateUpdate@GameplayFeedbackComponent@@UEAAXM@Z
?OnLateUpdate@ScriptComponent@@UEAAXM@Z
?OnLateUpdate@ThirdPersonCameraComponent@@UEAAXM@Z
?OnMouseButton@Input@@SAXH_N@Z
?OnMouseMove@Input@@SAXHHHH@Z
?OnOwnerLayerChanged@ColliderComponent@@UEAAXI@Z
?OnOwnerLayerChanged@Component@@UEAAXI@Z
?OnRender@Layer@@UEAAXXZ
?OnRender@SceneLayer@@UEAAXXZ
?OnRender@SceneRenderLayer@@UEAAXXZ
?OnSceneLoaded@SceneLayer@@MEAAXXZ
?OnSceneLoaded@SceneRenderLayer@@MEAAXXZ
?OnSceneUnloaded@SceneLayer@@MEAAXXZ
?OnShutdown@Application@@MEAAXXZ
?OnStart@Component@@UEAAXXZ
?OnStart@ScriptComponent@@UEAAXXZ
?OnUpdate@AnimatorComponent@@UEAAXM@Z
?OnUpdate@AudioSourceComponent@@UEAAXM@Z
?OnUpdate@Component@@UEAAXM@Z
?OnUpdate@EnemyAIComponent@@UEAAXM@Z
?OnUpdate@Layer@@UEAAXM@Z
?OnUpdate@NavAgentComponent@@UEAAXM@Z
?OnUpdate@ParticleSystemComponent@@UEAAXM@Z
?OnUpdate@RenderViewport@@UEAAXM@Z
?OnUpdate@Scene@@QEAAXM@Z
?OnUpdate@SceneLayer@@UEAAXM@Z
?OnUpdate@SceneRenderLayer@@UEAAXM@Z
?OnUpdate@SceneViewport@@UEAAXM@Z
?OnUpdate@ScriptComponent@@UEAAXM@Z
?OnUpdate@SkinnedMeshRendererComponent@@UEAAXM@Z
?OnWindowResize@RenderViewport@@UEAAXHH@Z
?OnWindowResize@SceneViewport@@UEAAXHH@Z
?Open@AssetDatabase@@QEAA_NVpath@filesystem@std@@PEAV?$basic_string@DU?$char_traits@D@std@@V?$allocator@D@2@@4@@Z
?Open@ContentArchiveReader@@QEAA_NAEBVpath@filesystem@std@@PEAV?$basic_string@DU?$char_traits@D@std@@V?$allocator@D@2@@4@@Z
?Open@ProjectConfig@@QEAA_NVpath@filesystem@std@@_NPEAV?$basic_string@DU?$char_traits@D@std@@V?$allocator@D@2@@4@@Z
?OpenRead@MountedFileSystem@@UEBA?AV?$unique_ptr@V?$basic_istream@DU?$char_traits@D@std@@@std@@U?$default_delete@V?$basic_istream@DU?$char_traits@D@std@@@std@@@2@@std@@AEBV?$basic_string@DU?$char_traits@D@std@@V?$allocator@D@2@@3@PEAV43@@Z
?OpenRead@PackageRootFileSystem@@UEBA?AV?$unique_ptr@V?$basic_istream@DU?$char_traits@D@std@@@std@@U?$default_delete@V?$basic_istream@DU?$char_traits@D@std@@@std@@@2@@std@@AEBV?$basic_string@DU?$char_traits@D@std@@V?$allocator@D@2@@3@PEAV43@@Z
?OpenRead@PakFileSystem@@UEBA?AV?$unique_ptr@V?$basic_istream@DU?$char_traits@D@std@@@std@@U?$default_delete@V?$basic_istream@DU?$char_traits@D@std@@@std@@@2@@std@@AEBV?$basic_string@DU?$char_traits@D@std@@V?$allocator@D@2@@3@PEAV43@@Z
?Orbit@Camera@@QEAAXMM@Z
?OrbitAroundFocus@SceneViewport@@QEAAXAEBUVec3@Math@@MM@Z
?OrderedActors@Scene@@AEBA?AV?$vector@PEAVActor@@V?$allocator@PEAVActor@@@std@@@std@@_N@Z
?OrderedComponents@Actor@@AEBA?AV?$vector@PEAVComponent@@V?$allocator@PEAVComponent@@@std@@@std@@_N@Z
?Pan@Camera@@QEAAXMM@Z
?ParseAudioBus@@YA_NAEBV?$basic_string@DU?$char_traits@D@std@@V?$allocator@D@2@@std@@AEAW4AudioBus@@@Z
?ParseRenderBackend@@YA?AV?$optional@W4RenderBackend@@@std@@V?$basic_string_view@DU?$char_traits@D@std@@@2@@Z
?ParseShaderGraph@@YA_NAEBV?$basic_json@Vmap@std@@Vvector@2@V?$basic_string@DU?$char_traits@D@std@@V?$allocator@D@2@@2@_N_J_KNVallocator@2@Uadl_serializer@json_abi_v3_11_3@nlohmann@@V?$vector@EV?$allocator@E@std@@@2@X@json_abi_v3_11_3@nlohmann@@AEAUShaderGraph@@PEAV?$vector@UShaderGraphDiagnostic@@V?$allocator@UShaderGraphDiagnostic@@@std@@@std@@@Z
?ParseSource@InputActionMap@@SA_NV?$basic_string_view@DU?$char_traits@D@std@@@std@@AEAUInputSource@@PEAV?$basic_string@DU?$char_traits@D@std@@V?$allocator@D@2@@3@@Z
?Passed@AssetDatabaseValidationReport@@QEBA_NXZ
?Pause@Scene@@QEAAXXZ
?PausePlay@SceneLayer@@QEAAXXZ
?PendingCount@GpuUploadQueue@@QEBA_KXZ
?Pin@AssetManager@@QEAAXAEBV?$basic_string@DU?$char_traits@D@std@@V?$allocator@D@2@@std@@@Z
?PinAssetToZone@Scene@@QEAA_N_KAEBV?$basic_string@DU?$char_traits@D@std@@V?$allocator@D@2@@std@@@Z
?Play@AnimatorComponent@@QEAA_NAEBV?$basic_string@DU?$char_traits@D@std@@V?$allocator@D@2@@std@@M@Z
?Play@AudioEngine@@QEAA_KAEBUAudioPlayDesc@@@Z
?Play@AudioSourceComponent@@QEAA_NXZ
?Play@ParticleSystemComponent@@QEAA_NXZ
?PollHotReload@AssetManager@@QEAA_KXZ
?PollHotReload@ScriptComponent@@AEAAXXZ
?PollPlatformEvents@Engine@@AEAAXXZ
?Pop@RuntimeUIScreenStack@@QEAA_NXZ
?PopLayer@LayerStack@@QEAAXPEAVLayer@@@Z
?PopulateIfEmpty@DefaultSceneFactory@@SAXAEAVScene@@@Z
?PrefabNodeFromJson@@YA_NAEBV?$basic_json@Vmap@std@@Vvector@2@V?$basic_string@DU?$char_traits@D@std@@V?$allocator@D@2@@2@_N_J_KNVallocator@2@Uadl_serializer@json_abi_v3_11_3@nlohmann@@V?$vector@EV?$allocator@E@std@@@2@X@json_abi_v3_11_3@nlohmann@@AEAUPrefabNode@@PEAV?$basic_string@DU?$char_traits@D@std@@V?$allocator@D@2@@std@@@Z
?PrefabNodeToJson@@YA?AV?$basic_json@Vmap@std@@Vvector@2@V?$basic_string@DU?$char_traits@D@std@@V?$allocator@D@2@@2@_N_J_KNVallocator@2@Uadl_serializer@json_abi_v3_11_3@nlohmann@@V?$vector@EV?$allocator@E@std@@@2@X@json_abi_v3_11_3@nlohmann@@AEBUPrefabNode@@@Z
?Prepare@CookedProjectCache@@SA_NAEBVpath@filesystem@std@@0AEAUCookedProjectMount@@PEAV?$basic_string@DU?$char_traits@D@std@@V?$allocator@D@2@@4@@Z
?Prepare@CookedProjectCache@@SA_NAEBVpath@filesystem@std@@AEAUCookedProjectMount@@PEAV?$basic_string@DU?$char_traits@D@std@@V?$allocator@D@2@@4@@Z
?Prepare@DebugDrawPass@@QEAA_NAEBV?$vector@UDebugDrawCommand@@V?$allocator@UDebugDrawCommand@@@std@@@std@@W4RHIFormat@@1W4DebugDrawViewMask@@@Z
?Prepare@ModernDeferredPipeline@@QEAA_NAEBVScene@@AEBVCamera@@_KAEBUModernPostProcessSettings@@@Z
?Prepare@ProbeLightingSystem@@QEAA_NAEBVScene@@@Z
?Prepare@RenderGraph@@QEAA_NXZ
?PrepareGraphResources@DeferredLightingPass@@QEAA_NXZ
?PrepareGraphResources@GBufferPass@@QEAA_NXZ
?PreprocessSource@AngelScriptRuntime@@SA_NAEBV?$basic_string@DU?$char_traits@D@std@@V?$allocator@D@2@@std@@0AEAV23@PEAV?$vector@V?$basic_string@DU?$char_traits@D@std@@V?$allocator@D@2@@std@@V?$allocator@V?$basic_string@DU?$char_traits@D@std@@V?$allocator@D@2@@std@@@2@@3@1@Z
?PrewarmCacheArtifacts@ShaderManager@@QEAA_NAEBV?$vector@V?$basic_string@DU?$char_traits@D@std@@V?$allocator@D@2@@std@@V?$allocator@V?$basic_string@DU?$char_traits@D@std@@V?$allocator@D@2@@std@@@2@@std@@@Z
?PrewarmCacheArtifactsAsync@ShaderManager@@QEAA?AW4ShaderPrewarmStatus@@AEBV?$vector@V?$basic_string@DU?$char_traits@D@std@@V?$allocator@D@2@@std@@V?$allocator@V?$basic_string@DU?$char_traits@D@std@@V?$allocator@D@2@@std@@@2@@std@@@Z
?PrewarmStartupShaders@Renderer@@AEAA_NAEBVScene@@@Z
?PrintStats@AssetManager@@QEBAXXZ
?Process@GpuUploadQueue@@QEAA_KAEAVIRHIDevice@@AEBUGpuUploadBudget@@@Z
?Process@GpuUploadQueue@@QEAA_KAEAVIRHIDevice@@_K@Z
?Process@SceneManager@@QEAA_NAEAV?$unique_ptr@VScene@@U?$default_delete@VScene@@@std@@@std@@@Z
?ProcessEvent@RuntimeUIScreenStack@@QEAA?AURuntimeUIStackEvent@@AEBUEvent@@@Z
?ProcessEvent@UISystem@@QEAA_NAEAUEvent@@@Z
?ProcessEvent@UISystem@@QEAA_NAEAVScene@@AEAUEvent@@AEBUUIInputViewport@@@Z
?ProcessRuntimeScreenPointer@UISystem@@QEAA_NAEAUEvent@@AEBUUIInputViewport@@AEA_KAEA_N@Z
?PublishAssetChanged@AssetManager@@AEAAXUAssetChangedEvent@@@Z
?Push@RuntimeUIScreenStack@@QEAA_NAEBV?$basic_string@DU?$char_traits@D@std@@V?$allocator@D@2@@std@@@Z
?PushEvent@Engine@@QEAAXAEBUEvent@@@Z
?PushLayer@Application@@IEAAXPEAVLayer@@@Z
?PushLayer@Engine@@QEAAXPEAVLayer@@@Z
?PushLayer@LayerStack@@QEAAXPEAVLayer@@@Z
?QuerySounds@NavigationWorld@@UEBA?AV?$vector@UNavigationSoundEvent@@V?$allocator@UNavigationSoundEvent@@@std@@@std@@AEBUVec3@Math@@@Z
?QueueAddComponent@Scene@@QEAA?AUComponentHandle@@UActorHandle@@AEBV?$basic_string@DU?$char_traits@D@std@@V?$allocator@D@2@@std@@AEBV?$basic_json@Vmap@std@@Vvector@2@V?$basic_string@DU?$char_traits@D@std@@V?$allocator@D@2@@2@_N_J_KNVallocator@2@Uadl_serializer@json_abi_v3_11_3@nlohmann@@V?$vector@EV?$allocator@E@std@@@2@X@json_abi_v3_11_3@nlohmann@@@Z
?QueueComponentAdd@Actor@@AEAAXAEBV?$basic_string@DU?$char_traits@D@std@@V?$allocator@D@2@@std@@AEBV?$basic_json@Vmap@std@@Vvector@2@V?$basic_string@DU?$char_traits@D@std@@V?$allocator@D@2@@2@_N_J_KNVallocator@2@Uadl_serializer@json_abi_v3_11_3@nlohmann@@V?$vector@EV?$allocator@E@std@@@2@X@json_abi_v3_11_3@nlohmann@@@Z
?QueueCreateActor@Scene@@QEAA?AUActorHandle@@AEBUActorCreateDesc@@@Z
?QueueDestroyActor@Scene@@QEAAXUActorHandle@@@Z
?QueueInstantiate@PrefabSystem@@SA?AUActorHandle@@AEAVScene@@AEBVpath@filesystem@std@@AEBUPrefabInstantiateOptions@@PEAV?$basic_string@DU?$char_traits@D@std@@V?$allocator@D@2@@6@@Z
?QueueMoveActor@Scene@@QEAAXUActorHandle@@00@Z
?QueueRemoveComponent@Scene@@QEAAXAEBUComponentHandle@@@Z
?QueueSetActive@Scene@@QEAAXUActorHandle@@_N@Z
?QueueSetComponentEnabled@Scene@@QEAAXAEBUComponentHandle@@_N@Z
?QueueSetEditorFlags@Scene@@QEAAXUActorHandle@@I@Z
?QueueSetLayer@Scene@@QEAAXUActorHandle@@I@Z
?QueueSetParent@Scene@@QEAAXUActorHandle@@0@Z
?QueueSetTag@Scene@@QEAAXUActorHandle@@AEBV?$basic_string@DU?$char_traits@D@std@@V?$allocator@D@2@@std@@@Z
?Rasterize@IconsManager@@QEAA?AV?$shared_ptr@UIconPixels@@@std@@V?$basic_string_view@DU?$char_traits@D@std@@@3@HUIconColor@@@Z
?ReachedDestination@NavAgentComponent@@QEBA_NXZ
?Read@SaveGame@@SA_NAEBV?$basic_string@DU?$char_traits@D@std@@V?$allocator@D@2@@std@@AEAUSaveGameData@@PEAV23@@Z
?ReadAccelerationStructure@RenderGraphBuilder@@QEAAXURGAccelerationStructureHandle@@@Z
?ReadAllBytes@MountedFileSystem@@UEBA_NAEBV?$basic_string@DU?$char_traits@D@std@@V?$allocator@D@2@@std@@AEAV?$vector@EV?$allocator@E@std@@@3@PEAV23@@Z
?ReadAllBytes@PackageRootFileSystem@@UEBA_NAEBV?$basic_string@DU?$char_traits@D@std@@V?$allocator@D@2@@std@@AEAV?$vector@EV?$allocator@E@std@@@3@PEAV23@@Z
?ReadAllBytes@PakFileSystem@@UEBA_NAEBV?$basic_string@DU?$char_traits@D@std@@V?$allocator@D@2@@std@@AEAV?$vector@EV?$allocator@E@std@@@3@PEAV23@@Z
?ReadBackup@SaveGame@@SA_NAEBV?$basic_string@DU?$char_traits@D@std@@V?$allocator@D@2@@std@@AEAUSaveGameData@@PEAV23@@Z
?ReadBuffer@RenderGraphBuilder@@QEAAXURGBufferHandle@@@Z
?ReadCopySource@RenderGraphBuilder@@QEAAXURGBufferHandle@@@Z
?ReadFile@ContentArchiveReader@@QEBA_NAEBV?$basic_string@DU?$char_traits@D@std@@V?$allocator@D@2@@std@@AEAV?$vector@EV?$allocator@E@std@@@3@PEAV23@@Z
?ReadFileInternal@ContentArchiveReader@@AEBA_NAEBV?$basic_string@DU?$char_traits@D@std@@V?$allocator@D@2@@std@@AEAV?$vector@EV?$allocator@E@std@@@3@_NPEAV23@@Z
?ReadFileUncheckedAfterManifestValidated@ContentArchiveReader@@QEBA_NAEBV?$basic_string@DU?$char_traits@D@std@@V?$allocator@D@2@@std@@AEAV?$vector@EV?$allocator@E@std@@@3@PEAV23@@Z
?ReadIndirect@RenderGraphBuilder@@QEAAXURGBufferHandle@@@Z
?ReadText@IReadOnlyFileSystem@@QEBA_NAEBV?$basic_string@DU?$char_traits@D@std@@V?$allocator@D@2@@std@@AEAV23@PEAV23@@Z
?ReadTexture@RenderGraphBuilder@@QEAAXURGTextureHandle@@@Z
?ReadTexture@RenderGraphBuilder@@QEAAXURGTextureHandle@@URGTextureSubresource@@@Z
?ReadWriteUAV@RenderGraphBuilder@@QEAAXURGBufferHandle@@@Z
?ReadWriteUAV@RenderGraphBuilder@@QEAAXURGTextureHandle@@@Z
?ReadWriteUAV@RenderGraphBuilder@@QEAAXURGTextureHandle@@URGTextureSubresource@@@Z
?ReadbackService@RenderPass@@IEBAPEAVIRHIReadbackService@@XZ
?ReapCompleted@TaskScope@@QEAAXXZ
?ReapStaleTasks@SceneManager@@AEAAXXZ
?Rebind@InputActionMap@@QEAA_NV?$basic_string_view@DU?$char_traits@D@std@@@std@@_KW4InputBindingPart@@0_NPEAV?$basic_string@DU?$char_traits@D@std@@V?$allocator@D@2@@3@@Z
?RebindAction@Input@@SA_NV?$basic_string_view@DU?$char_traits@D@std@@@std@@_KW4InputBindingPart@@0_NPEAV?$basic_string@DU?$char_traits@D@std@@V?$allocator@D@2@@3@@Z
?RebuildAABB@MeshAsset@@AEAAXXZ
?RebuildComponentLookup@Actor@@AEAAXXZ
?RebuildDerivedData@MeshAsset@@AEAAXXZ
?RebuildDerivedData@TextureAsset@@AEAAXXZ
?RebuildGpuMesh@SkinnedMeshRendererComponent@@AEAAXXZ
?RebuildIndexes@AssetDatabase@@AEAAXXZ
?RebuildPose@SkinnedMeshRendererComponent@@AEAAXXZ
?RebuildProj@Camera@@AEAAXXZ
?RebuildSubMeshBounds@MeshAsset@@AEAAXXZ
?RebuildView@Camera@@AEBAXXZ
?Recompile@ShaderManager@@QEAAXAEBV?$basic_string@DU?$char_traits@D@std@@V?$allocator@D@2@@std@@@Z
?RecompileAll@ShaderManager@@QEAAXXZ
?Recompute@GameFlowController@@AEAAXPEAVScene@@@Z
?Record@ScriptProfiler@@SAXAEBV?$basic_string@DU?$char_traits@D@std@@V?$allocator@D@2@@std@@0N_N@Z
?RecordNativeDescriptorAllocationFailure@RHIResourceStatsProvider@@SAXW4RHINativeDescriptorKind@@@Z
?RecycleActiveTransientResources@RenderGraph@@AEAAXXZ
?RefCount@Asset@@QEBAHXZ
?ReflectionPixels@LightingProbeAsset@@QEAAAEAV?$vector@EV?$allocator@E@std@@@std@@XZ
?ReflectionProbes@LightingProbeAsset@@QEAAAEAV?$vector@UBakedReflectionProbe@@V?$allocator@UBakedReflectionProbe@@@std@@@std@@XZ
?RefreshActiveInHierarchy@Actor@@AEAAX_N0@Z
?RefreshDependencies@AssetManager@@AEAAXAEAVAsset@@@Z
?RefreshGamepadInventory@Input@@CAXXZ
?RefreshInstances@PrefabSystem@@SA_NAEAVScene@@AEBV?$basic_string@DU?$char_traits@D@std@@V?$allocator@D@2@@std@@PEAV34@@Z
?RefreshPipelineDiagnostics@Renderer@@AEAAXXZ
?RefreshRuntimeSettingsLabels@SceneRenderLayer@@AEAAXXZ
?RefreshState@SubtitleSystem@@AEAAXXZ
?RegenerateProbeId@ReflectionProbeComponent@@QEAAXXZ
?RegenerateProbeId@SHProbeVolumeComponent@@QEAAXXZ
?Register@ComponentRegistry@@QEAA_NAEBV?$basic_string@DU?$char_traits@D@std@@V?$allocator@D@2@@std@@V?$function@$$A6A?AV?$unique_ptr@VComponent@@U?$default_delete@VComponent@@@std@@@std@@XZ@3@@Z
?Register@JsonMigrationRegistry@@QEAA_NIV?$function@$$A6A_NAEAV?$basic_json@Vmap@std@@Vvector@2@V?$basic_string@DU?$char_traits@D@std@@V?$allocator@D@2@@2@_N_J_KNVallocator@2@Uadl_serializer@json_abi_v3_11_3@nlohmann@@V?$vector@EV?$allocator@E@std@@@2@X@json_abi_v3_11_3@nlohmann@@PEAV?$basic_string@DU?$char_traits@D@std@@V?$allocator@D@2@@std@@@Z@std@@PEAV?$basic_string@DU?$char_traits@D@std@@V?$allocator@D@2@@3@@Z
?Register@RuntimeUIScreenStack@@QEAA_NURuntimeUIScreenDescriptor@@PEAV?$basic_string@DU?$char_traits@D@std@@V?$allocator@D@2@@std@@@Z
?Register@TaskScope@@AEAAXAEBV?$shared_ptr@VTaskStateBase@@@std@@@Z
?Register@TypeRegistry@@QEAA_NUTypeDescriptor@@PEAV?$basic_string@DU?$char_traits@D@std@@V?$allocator@D@2@@std@@@Z
?Register@WorldZoneStreamer@@QEAA_NUWorldZoneStreamDescriptor@@PEAV?$basic_string@DU?$char_traits@D@std@@V?$allocator@D@2@@std@@@Z
?RegisterAssetMemoryFor@AssetManager@@AEAAXAEBVAsset@@@Z
?RegisterDefaultLoaders@AssetManager@@AEAAXXZ
?RegisterLoader@AssetManager@@QEAAXAEBV?$basic_string@DU?$char_traits@D@std@@V?$allocator@D@2@@std@@V?$function@$$A6A?AV?$shared_ptr@VAsset@@@std@@AEBV?$basic_string@DU?$char_traits@D@std@@V?$allocator@D@2@@2@@Z@3@@Z
?RegisterPersistentIdentity@AssetManager@@QEAAXAEBV?$basic_string@DU?$char_traits@D@std@@V?$allocator@D@2@@std@@0@Z
?RegisterSystem@WorldFrameScheduler@@QEAA_NUWorldSystemDescriptor@@PEAV?$basic_string@DU?$char_traits@D@std@@V?$allocator@D@2@@std@@@Z
?Release@Asset@@AEAAXXZ
?ReleaseAssetMemoryFor@AssetManager@@AEAAXAEBVAsset@@@Z
?ReleaseAssetPins@Scene@@AEAAXXZ
?ReleaseBuffer@RHIResourceStatsProvider@@SAX_K@Z
?ReleaseDescriptors@RHIResourceStatsProvider@@SAXI@Z
?ReleaseFrameResources@RenderViewport@@QEAAXXZ
?ReleaseFrameResources@Renderer@@QEAAXXZ
?ReleaseNativeDescriptorSlots@RHIResourceStatsProvider@@SAXW4RHINativeDescriptorKind@@I@Z
?ReleasePause@GameFlowController@@QEAAXW4GamePauseReason@@PEAVScene@@@Z
?ReleasePinnedDependencies@SceneManager@@AEAAXXZ
?ReleaseReserved@Scene@@AEAAXUActorHandle@@@Z
?ReleaseTexture@RHIResourceStatsProvider@@SAX_K@Z
?Reload@AssetManager@@QEAA_NAEBV?$basic_string@DU?$char_traits@D@std@@V?$allocator@D@2@@std@@@Z
?Reload@UICanvas@@QEAA_NXZ
?Reload@UICanvasComponent@@QEAA_NXZ
?ReloadFrom@Asset@@UEAA_NAEBV1@@Z
?ReloadFrom@MeshAsset@@UEAA_NAEBVAsset@@@Z
?ReloadFrom@ShaderAsset@@UEAA_NAEBVAsset@@@Z
?ReloadFrom@TextureAsset@@UEAA_NAEBVAsset@@@Z
?Remove@AssetDatabase@@QEAA_NAEBV?$basic_string@DU?$char_traits@D@std@@V?$allocator@D@2@@std@@@Z
?Remove@SaveGame@@SA_NAEBV?$basic_string@DU?$char_traits@D@std@@V?$allocator@D@2@@std@@PEAV23@@Z
?RemoveChild@Actor@@AEAAXPEAV1@@Z
?RemoveComponentAt@Actor@@AEAA_N_K@Z
?RemoveComponentByTypeName@Actor@@QEAA_NAEBV?$basic_string@DU?$char_traits@D@std@@V?$allocator@D@2@@std@@@Z
?Render@RenderViewport@@UEAAXAEAVScene@@_NPEBVUIDrawList@@@Z
?RenderBackendToLabel@@YAPEBDW4RenderBackend@@@Z
?RenderBackendToProjectValue@@YAPEBDW4RenderBackend@@@Z
?RenderLayers@Engine@@AEAAXXZ
?RenderScene@Renderer@@QEAAXAEBVScene@@AEBVCamera@@_N@Z
?ReplaceRoot@RuntimeUIScreenStack@@QEAA_NAEBV?$basic_string@DU?$char_traits@D@std@@V?$allocator@D@2@@std@@@Z
?RequestAsync@AssetManager@@QEAA?AV?$TaskHandle@V?$shared_ptr@VAsset@@@std@@@@AEBV?$basic_string@DU?$char_traits@D@std@@V?$allocator@D@2@@std@@@Z
?RequestLoad@SceneManager@@QEAA_KV?$basic_string@DU?$char_traits@D@std@@V?$allocator@D@2@@std@@USceneLoadOptions@@@Z
?RequestPause@GameFlowController@@QEAAXW4GamePauseReason@@PEAVScene@@@Z
?RequestQuit@Engine@@QEAAXXZ
?RequestSceneLoad@SceneLayer@@QEAA_NAEBV?$basic_string@DU?$char_traits@D@std@@V?$allocator@D@2@@std@@@Z
?ReserveHandle@Scene@@AEAA?AUActorHandle@@XZ
?Reset@LinearAllocator@@QEAAXXZ
?Reset@ProbeLightingSystem@@QEAAXXZ
?Reset@RenderGraph@@QEAAXXZ
?Reset@RuntimePerformanceGate@@QEAAXXZ
?Reset@RuntimeQualityDegradation@@SAXXZ
?Reset@ScriptProfiler@@SAXXZ
?Reset@WorldFrameScheduler@@QEAAXXZ
?Reset@WorldZoneStreamer@@QEAAXAEAVScene@@@Z
?ResetActionMapOverrides@Input@@SAXXZ
?ResetFrameStats@MaterialResourceCache@@QEAAXXZ
?ResetPeaksAndTotals@RHIResourceStatsProvider@@SAXXZ
?ResetStatistics@GpuUploadQueue@@QEAAXXZ
?ResetStatistics@RuntimeResourceBudgetController@@QEAAXXZ
?ResetTemporalState@GpuSceneDatabase@@QEAAXXZ
?Resize@DeferredLightingPass@@UEAAXII@Z
?Resize@GBufferPass@@UEAAXII@Z
?Resize@ModernDeferredPipeline@@QEAAXII@Z
?Resize@RenderPass@@UEAAXII@Z
?Resize@Renderer@@QEAAXII@Z
?Resize@UISystem@@QEAAXHH@Z
?Resolve@InputGlyphAtlas@@QEBA?AUInputGlyphDescriptor@@AEBV?$basic_string@DU?$char_traits@D@std@@V?$allocator@D@2@@std@@00@Z
?Resolve@MaterialSystem@@QEBA?AUResolvedMaterial@@AEBV?$AssetHandle@VMaterialAsset@@@@@Z
?Resolve@MaterialSystem@@QEBA?AUResolvedMaterial@@AEBVMaterialAsset@@@Z
?Resolve@SaveGame@@CA_NAEBV?$basic_string@DU?$char_traits@D@std@@V?$allocator@D@2@@std@@AEAV23@PEAV23@@Z
?ResolveContained@ContentPathPolicy@@SA_NAEBVpath@filesystem@std@@0AEAV234@PEAV?$basic_string@DU?$char_traits@D@std@@V?$allocator@D@2@@4@_N@Z
?ResolveDataModel@UISystem@@CAPEAVUIDataModel@@PEAXAEBV?$basic_string@DU?$char_traits@D@std@@V?$allocator@D@2@@std@@@Z
?ResolveFrameCamera@GameViewport@@UEAAXAEBVScene@@@Z
?ResolveFrameCamera@RenderViewport@@UEAAXAEBVScene@@@Z
?ResolveIconPath@IconsManager@@QEBA?AVpath@filesystem@std@@V?$basic_string_view@DU?$char_traits@D@std@@@4@@Z
?ResolveImportedArtifactPath@AssetManager@@AEBA?AV?$basic_string@DU?$char_traits@D@std@@V?$allocator@D@2@@std@@AEBV23@PEAV23@@Z
?ResolveInputConfigPath@ProjectConfig@@QEBA_NAEAVpath@filesystem@std@@_NPEAV?$basic_string@DU?$char_traits@D@std@@V?$allocator@D@2@@4@@Z
?ResolveMaterialReference@AssetManager@@QEAA?AV?$AssetHandle@VMaterialAsset@@@@AEBV?$basic_string@DU?$char_traits@D@std@@V?$allocator@D@2@@std@@0@Z
?ResolveMeshReference@AssetManager@@QEAA?AV?$AssetHandle@VMeshAsset@@@@AEBV?$basic_string@DU?$char_traits@D@std@@V?$allocator@D@2@@std@@@Z
?ResolveModernRayTracingEffectMask@@YAII_NAEBURHIDeviceCapabilities@@II@Z
?ResolvePath@AssetManager@@QEBA?AV?$basic_string@DU?$char_traits@D@std@@V?$allocator@D@2@@std@@AEBV23@@Z
?ResolvePrefabPath@PrefabSystem@@SA?AVpath@filesystem@std@@AEBV234@@Z
?ResolveRootFile@PackageRootFileSystem@@AEBA?AVpath@filesystem@std@@AEBV?$basic_string@DU?$char_traits@D@std@@V?$allocator@D@2@@4@@Z
?ResolveScenePath@ProjectConfig@@QEBA_NAEBV?$basic_string@DU?$char_traits@D@std@@V?$allocator@D@2@@std@@AEAVpath@filesystem@3@_NPEAV23@@Z
?ResolveSource@ShaderAsset@@QEBA?AVpath@filesystem@std@@W4ShaderPass@@W4ShaderStage@@@Z
?ResolveSource@ShaderAsset@@QEBA?AVpath@filesystem@std@@W4ShaderStage@@@Z
?ResolveStartupScene@ProjectConfig@@QEBA_NAEAVpath@filesystem@std@@PEAV?$basic_string@DU?$char_traits@D@std@@V?$allocator@D@2@@4@@Z
?RestoreBackup@SaveGame@@SA_NAEBV?$basic_string@DU?$char_traits@D@std@@V?$allocator@D@2@@std@@PEAV23@@Z
?RestoreEditorSnapshot@SceneLayer@@QEAA_NAEBV?$basic_string@DU?$char_traits@D@std@@V?$allocator@D@2@@std@@0@Z
?Resume@Scene@@QEAAXXZ
?ResumePlay@SceneLayer@@QEAAXXZ
?Retry@WorldZoneStreamer@@QEAA_NAEBV?$basic_string@DU?$char_traits@D@std@@V?$allocator@D@2@@std@@@Z
?RetryLastLoad@SceneManager@@QEAA_NXZ
?RevertAll@PrefabSystem@@SA_NAEAVActor@@PEAV?$basic_string@DU?$char_traits@D@std@@V?$allocator@D@2@@std@@@Z
?RootName@RuntimeUIScreenStack@@QEBAAEBV?$basic_string@DU?$char_traits@D@std@@V?$allocator@D@2@@std@@XZ
?Rotate@Camera@@QEAAXMM@Z
?Run@Application@@QEAAHXZ
?RunLoop@Engine@@QEAAXXZ
?RunRHIConformance@@YA?AURHIConformanceReport@@AEAVIRHIContext@@@Z
?SHCoefficientCount@LightingProbeAsset@@2IB
?SHCoefficients@LightingProbeAsset@@QEAAAEAV?$vector@V?$array@M$03@std@@V?$allocator@V?$array@M$03@std@@@2@@std@@XZ
?SHVolumes@LightingProbeAsset@@QEAAAEAV?$vector@UBakedSHProbeVolume@@V?$allocator@UBakedSHProbeVolume@@@std@@@std@@XZ
?SameSamplerDesc@MaterialResourceCache@@SA_NAEBURHISamplerDesc@@0@Z
?SampleClip@SkinnedMeshRendererComponent@@AEBA?AUBoneKeyframe@@AEBUAnimationClip@@AEBUBone@@_KM@Z
?SampleCount@RuntimePerformanceGate@@QEBA_KXZ
?SampleTrack@SkinnedMeshRendererComponent@@AEBA?AUBoneKeyframe@@AEBUBoneTrack@@AEBUBone@@M@Z
?SamplerDescForTexture@MaterialResourceCache@@SA?AURHISamplerDesc@@AEBVTextureAsset@@@Z
?Save@AssetDatabase@@QEBA_NPEAV?$basic_string@DU?$char_traits@D@std@@V?$allocator@D@2@@std@@@Z
?Save@AssetMeta@@SA_NAEBU1@@Z
?Save@CookManifest@@QEBA_NAEBVpath@filesystem@std@@PEAV?$basic_string@DU?$char_traits@D@std@@V?$allocator@D@2@@4@@Z
?Save@PrefabAsset@@QEBA_NAEBVpath@filesystem@std@@PEAV?$basic_string@DU?$char_traits@D@std@@V?$allocator@D@2@@4@@Z
?Save@ProjectConfig@@QEAA_NPEAV?$basic_string@DU?$char_traits@D@std@@V?$allocator@D@2@@std@@@Z
?Save@RuntimeDependencyManifest@@QEBA_NAEBVpath@filesystem@std@@PEAV?$basic_string@DU?$char_traits@D@std@@V?$allocator@D@2@@4@@Z
?Save@RuntimeUserSettingsStore@@SA_NAEBURuntimeUserSettings@@PEAV?$basic_string@DU?$char_traits@D@std@@V?$allocator@D@2@@std@@@Z
?SaveCookedShaderAsset@@YA_NAEBVShaderAsset@@AEBVpath@filesystem@std@@PEAV?$basic_string@DU?$char_traits@D@std@@V?$allocator@D@2@@4@@Z
?SaveLightingProbeAssetToFile@@YA_NAEBVLightingProbeAsset@@AEBV?$basic_string@DU?$char_traits@D@std@@V?$allocator@D@2@@std@@PEAV23@@Z
?SaveMaterialAssetToFile@@YA_NAEBVMaterialAsset@@AEBV?$basic_string@DU?$char_traits@D@std@@V?$allocator@D@2@@std@@@Z
?SaveModelCacheAssetToFile@@YA_NAEBVModelAsset@@AEBV?$basic_string@DU?$char_traits@D@std@@V?$allocator@D@2@@std@@@Z
?SaveNavMeshAssetToFile@@YA_NAEBVNavMeshAsset@@AEBV?$basic_string@DU?$char_traits@D@std@@V?$allocator@D@2@@std@@@Z
?SaveScene@SceneLayer@@QEAA_NXZ
?SaveSceneAs@SceneLayer@@QEAA_NAEBV?$basic_string@DU?$char_traits@D@std@@V?$allocator@D@2@@std@@@Z
?SaveSubtree@PrefabSystem@@SA_NAEBVActor@@AEBVpath@filesystem@std@@PEAV?$basic_string@DU?$char_traits@D@std@@V?$allocator@D@2@@5@@Z
?SaveToFile@InputActionMap@@QEBA_NAEBVpath@filesystem@std@@PEAV?$basic_string@DU?$char_traits@D@std@@V?$allocator@D@2@@4@@Z
?SaveToFile@SceneSerializer@@SA_NAEBVScene@@AEBV?$basic_string@DU?$char_traits@D@std@@V?$allocator@D@2@@std@@@Z
?SaveToString@SceneSerializer@@SA?AV?$basic_string@DU?$char_traits@D@std@@V?$allocator@D@2@@std@@AEBVScene@@@Z
?SceneCheckActorBudget@MemoryService@@AEAAXXZ
?SceneNotifyActorCreated@MemoryService@@QEAAXXZ
?SceneNotifyActorDestroyed@MemoryService@@QEAAXXZ
?SceneNotifyActorsDestroyed@MemoryService@@QEAAX_K@Z
?ScheduleTimer@AngelScriptRuntime@@QEAA_KM_NAEBV?$basic_string@DU?$char_traits@D@std@@V?$allocator@D@2@@std@@AEAV23@@Z
?ScheduleTimer@ScriptComponent@@QEAA_KM_NAEBV?$basic_string@DU?$char_traits@D@std@@V?$allocator@D@2@@std@@@Z
?SelectReflectionProbes@ProbeLightingSystem@@QEBA?AUProbeSelection@@AEBUVec3@Math@@I@Z
?Serialize@ActorSubtreeSerializer@@SA_NAEBVActor@@AEAV?$vector@UPrefabNode@@V?$allocator@UPrefabNode@@@std@@@std@@PEAV?$basic_string@DU?$char_traits@D@std@@V?$allocator@D@2@@4@PEBV?$unordered_set@PEBVActor@@U?$hash@PEBVActor@@@std@@U?$equal_to@PEBVActor@@@3@V?$allocator@PEBVActor@@@3@@4@PEAV?$unordered_map@PEBVActor@@V?$basic_string@DU?$char_traits@D@std@@V?$allocator@D@2@@std@@U?$hash@PEBVActor@@@3@U?$equal_to@PEBVActor@@@3@V?$allocator@U?$pair@QEBVActor@@V?$basic_string@DU?$char_traits@D@std@@V?$allocator@D@2@@std@@@std@@@3@@4@@Z
?Serialize@AnimatorComponent@@UEBAXAEAV?$basic_json@Vmap@std@@Vvector@2@V?$basic_string@DU?$char_traits@D@std@@V?$allocator@D@2@@2@_N_J_KNVallocator@2@Uadl_serializer@json_abi_v3_11_3@nlohmann@@V?$vector@EV?$allocator@E@std@@@2@X@json_abi_v3_11_3@nlohmann@@@Z
?Serialize@AnimatorController@@QEBAXAEAV?$basic_json@Vmap@std@@Vvector@2@V?$basic_string@DU?$char_traits@D@std@@V?$allocator@D@2@@2@_N_J_KNVallocator@2@Uadl_serializer@json_abi_v3_11_3@nlohmann@@V?$vector@EV?$allocator@E@std@@@2@X@json_abi_v3_11_3@nlohmann@@@Z
?Serialize@AudioListenerComponent@@UEBAXAEAV?$basic_json@Vmap@std@@Vvector@2@V?$basic_string@DU?$char_traits@D@std@@V?$allocator@D@2@@2@_N_J_KNVallocator@2@Uadl_serializer@json_abi_v3_11_3@nlohmann@@V?$vector@EV?$allocator@E@std@@@2@X@json_abi_v3_11_3@nlohmann@@@Z
?Serialize@AudioSourceComponent@@UEBAXAEAV?$basic_json@Vmap@std@@Vvector@2@V?$basic_string@DU?$char_traits@D@std@@V?$allocator@D@2@@2@_N_J_KNVallocator@2@Uadl_serializer@json_abi_v3_11_3@nlohmann@@V?$vector@EV?$allocator@E@std@@@2@X@json_abi_v3_11_3@nlohmann@@@Z
?Serialize@BoxColliderComponent@@UEBAXAEAV?$basic_json@Vmap@std@@Vvector@2@V?$basic_string@DU?$char_traits@D@std@@V?$allocator@D@2@@2@_N_J_KNVallocator@2@Uadl_serializer@json_abi_v3_11_3@nlohmann@@V?$vector@EV?$allocator@E@std@@@2@X@json_abi_v3_11_3@nlohmann@@@Z
?Serialize@CameraComponent@@UEBAXAEAV?$basic_json@Vmap@std@@Vvector@2@V?$basic_string@DU?$char_traits@D@std@@V?$allocator@D@2@@2@_N_J_KNVallocator@2@Uadl_serializer@json_abi_v3_11_3@nlohmann@@V?$vector@EV?$allocator@E@std@@@2@X@json_abi_v3_11_3@nlohmann@@@Z
?Serialize@CapsuleColliderComponent@@UEBAXAEAV?$basic_json@Vmap@std@@Vvector@2@V?$basic_string@DU?$char_traits@D@std@@V?$allocator@D@2@@2@_N_J_KNVallocator@2@Uadl_serializer@json_abi_v3_11_3@nlohmann@@V?$vector@EV?$allocator@E@std@@@2@X@json_abi_v3_11_3@nlohmann@@@Z
?Serialize@CharacterControllerComponent@@UEBAXAEAV?$basic_json@Vmap@std@@Vvector@2@V?$basic_string@DU?$char_traits@D@std@@V?$allocator@D@2@@2@_N_J_KNVallocator@2@Uadl_serializer@json_abi_v3_11_3@nlohmann@@V?$vector@EV?$allocator@E@std@@@2@X@json_abi_v3_11_3@nlohmann@@@Z
?Serialize@Component@@UEBAXAEAV?$basic_json@Vmap@std@@Vvector@2@V?$basic_string@DU?$char_traits@D@std@@V?$allocator@D@2@@2@_N_J_KNVallocator@2@Uadl_serializer@json_abi_v3_11_3@nlohmann@@V?$vector@EV?$allocator@E@std@@@2@X@json_abi_v3_11_3@nlohmann@@@Z
?Serialize@EnemyAIComponent@@UEBAXAEAV?$basic_json@Vmap@std@@Vvector@2@V?$basic_string@DU?$char_traits@D@std@@V?$allocator@D@2@@2@_N_J_KNVallocator@2@Uadl_serializer@json_abi_v3_11_3@nlohmann@@V?$vector@EV?$allocator@E@std@@@2@X@json_abi_v3_11_3@nlohmann@@@Z
?Serialize@GameplayFeedbackComponent@@UEBAXAEAV?$basic_json@Vmap@std@@Vvector@2@V?$basic_string@DU?$char_traits@D@std@@V?$allocator@D@2@@2@_N_J_KNVallocator@2@Uadl_serializer@json_abi_v3_11_3@nlohmann@@V?$vector@EV?$allocator@E@std@@@2@X@json_abi_v3_11_3@nlohmann@@@Z
?Serialize@HealthComponent@@UEBAXAEAV?$basic_json@Vmap@std@@Vvector@2@V?$basic_string@DU?$char_traits@D@std@@V?$allocator@D@2@@2@_N_J_KNVallocator@2@Uadl_serializer@json_abi_v3_11_3@nlohmann@@V?$vector@EV?$allocator@E@std@@@2@X@json_abi_v3_11_3@nlohmann@@@Z
?Serialize@HitboxComponent@@UEBAXAEAV?$basic_json@Vmap@std@@Vvector@2@V?$basic_string@DU?$char_traits@D@std@@V?$allocator@D@2@@2@_N_J_KNVallocator@2@Uadl_serializer@json_abi_v3_11_3@nlohmann@@V?$vector@EV?$allocator@E@std@@@2@X@json_abi_v3_11_3@nlohmann@@@Z
?Serialize@HurtboxComponent@@UEBAXAEAV?$basic_json@Vmap@std@@Vvector@2@V?$basic_string@DU?$char_traits@D@std@@V?$allocator@D@2@@2@_N_J_KNVallocator@2@Uadl_serializer@json_abi_v3_11_3@nlohmann@@V?$vector@EV?$allocator@E@std@@@2@X@json_abi_v3_11_3@nlohmann@@@Z
?Serialize@InteractionComponent@@UEBAXAEAV?$basic_json@Vmap@std@@Vvector@2@V?$basic_string@DU?$char_traits@D@std@@V?$allocator@D@2@@2@_N_J_KNVallocator@2@Uadl_serializer@json_abi_v3_11_3@nlohmann@@V?$vector@EV?$allocator@E@std@@@2@X@json_abi_v3_11_3@nlohmann@@@Z
?Serialize@LightComponent@@UEBAXAEAV?$basic_json@Vmap@std@@Vvector@2@V?$basic_string@DU?$char_traits@D@std@@V?$allocator@D@2@@2@_N_J_KNVallocator@2@Uadl_serializer@json_abi_v3_11_3@nlohmann@@V?$vector@EV?$allocator@E@std@@@2@X@json_abi_v3_11_3@nlohmann@@@Z
?Serialize@MeshRendererComponent@@UEBAXAEAV?$basic_json@Vmap@std@@Vvector@2@V?$basic_string@DU?$char_traits@D@std@@V?$allocator@D@2@@2@_N_J_KNVallocator@2@Uadl_serializer@json_abi_v3_11_3@nlohmann@@V?$vector@EV?$allocator@E@std@@@2@X@json_abi_v3_11_3@nlohmann@@@Z
?Serialize@NavAgentComponent@@UEBAXAEAV?$basic_json@Vmap@std@@Vvector@2@V?$basic_string@DU?$char_traits@D@std@@V?$allocator@D@2@@2@_N_J_KNVallocator@2@Uadl_serializer@json_abi_v3_11_3@nlohmann@@V?$vector@EV?$allocator@E@std@@@2@X@json_abi_v3_11_3@nlohmann@@@Z
?Serialize@ParticleSystemComponent@@UEBAXAEAV?$basic_json@Vmap@std@@Vvector@2@V?$basic_string@DU?$char_traits@D@std@@V?$allocator@D@2@@2@_N_J_KNVallocator@2@Uadl_serializer@json_abi_v3_11_3@nlohmann@@V?$vector@EV?$allocator@E@std@@@2@X@json_abi_v3_11_3@nlohmann@@@Z
?Serialize@PostProcessComponent@@UEBAXAEAV?$basic_json@Vmap@std@@Vvector@2@V?$basic_string@DU?$char_traits@D@std@@V?$allocator@D@2@@2@_N_J_KNVallocator@2@Uadl_serializer@json_abi_v3_11_3@nlohmann@@V?$vector@EV?$allocator@E@std@@@2@X@json_abi_v3_11_3@nlohmann@@@Z
?Serialize@ReflectionProbeComponent@@UEBAXAEAV?$basic_json@Vmap@std@@Vvector@2@V?$basic_string@DU?$char_traits@D@std@@V?$allocator@D@2@@2@_N_J_KNVallocator@2@Uadl_serializer@json_abi_v3_11_3@nlohmann@@V?$vector@EV?$allocator@E@std@@@2@X@json_abi_v3_11_3@nlohmann@@@Z
?Serialize@RigidBodyComponent@@UEBAXAEAV?$basic_json@Vmap@std@@Vvector@2@V?$basic_string@DU?$char_traits@D@std@@V?$allocator@D@2@@2@_N_J_KNVallocator@2@Uadl_serializer@json_abi_v3_11_3@nlohmann@@V?$vector@EV?$allocator@E@std@@@2@X@json_abi_v3_11_3@nlohmann@@@Z
?Serialize@SHProbeVolumeComponent@@UEBAXAEAV?$basic_json@Vmap@std@@Vvector@2@V?$basic_string@DU?$char_traits@D@std@@V?$allocator@D@2@@2@_N_J_KNVallocator@2@Uadl_serializer@json_abi_v3_11_3@nlohmann@@V?$vector@EV?$allocator@E@std@@@2@X@json_abi_v3_11_3@nlohmann@@@Z
?Serialize@ScriptComponent@@UEBAXAEAV?$basic_json@Vmap@std@@Vvector@2@V?$basic_string@DU?$char_traits@D@std@@V?$allocator@D@2@@2@_N_J_KNVallocator@2@Uadl_serializer@json_abi_v3_11_3@nlohmann@@V?$vector@EV?$allocator@E@std@@@2@X@json_abi_v3_11_3@nlohmann@@@Z
?Serialize@SkinnedMeshRendererComponent@@UEBAXAEAV?$basic_json@Vmap@std@@Vvector@2@V?$basic_string@DU?$char_traits@D@std@@V?$allocator@D@2@@2@_N_J_KNVallocator@2@Uadl_serializer@json_abi_v3_11_3@nlohmann@@V?$vector@EV?$allocator@E@std@@@2@X@json_abi_v3_11_3@nlohmann@@@Z
?Serialize@SkylightComponent@@UEBAXAEAV?$basic_json@Vmap@std@@Vvector@2@V?$basic_string@DU?$char_traits@D@std@@V?$allocator@D@2@@2@_N_J_KNVallocator@2@Uadl_serializer@json_abi_v3_11_3@nlohmann@@V?$vector@EV?$allocator@E@std@@@2@X@json_abi_v3_11_3@nlohmann@@@Z
?Serialize@SphereColliderComponent@@UEBAXAEAV?$basic_json@Vmap@std@@Vvector@2@V?$basic_string@DU?$char_traits@D@std@@V?$allocator@D@2@@2@_N_J_KNVallocator@2@Uadl_serializer@json_abi_v3_11_3@nlohmann@@V?$vector@EV?$allocator@E@std@@@2@X@json_abi_v3_11_3@nlohmann@@@Z
?Serialize@ThirdPersonCameraComponent@@UEBAXAEAV?$basic_json@Vmap@std@@Vvector@2@V?$basic_string@DU?$char_traits@D@std@@V?$allocator@D@2@@2@_N_J_KNVallocator@2@Uadl_serializer@json_abi_v3_11_3@nlohmann@@V?$vector@EV?$allocator@E@std@@@2@X@json_abi_v3_11_3@nlohmann@@@Z
?Serialize@TypeRegistry@@QEBA_NAEBVComponent@@AEAV?$basic_json@Vmap@std@@Vvector@2@V?$basic_string@DU?$char_traits@D@std@@V?$allocator@D@2@@2@_N_J_KNVallocator@2@Uadl_serializer@json_abi_v3_11_3@nlohmann@@V?$vector@EV?$allocator@E@std@@@2@X@json_abi_v3_11_3@nlohmann@@AEAIPEAV?$basic_string@DU?$char_traits@D@std@@V?$allocator@D@2@@std@@@Z
?Serialize@UIButtonComponent@@UEBAXAEAV?$basic_json@Vmap@std@@Vvector@2@V?$basic_string@DU?$char_traits@D@std@@V?$allocator@D@2@@2@_N_J_KNVallocator@2@Uadl_serializer@json_abi_v3_11_3@nlohmann@@V?$vector@EV?$allocator@E@std@@@2@X@json_abi_v3_11_3@nlohmann@@@Z
?Serialize@UICanvasComponent@@UEBAXAEAV?$basic_json@Vmap@std@@Vvector@2@V?$basic_string@DU?$char_traits@D@std@@V?$allocator@D@2@@2@_N_J_KNVallocator@2@Uadl_serializer@json_abi_v3_11_3@nlohmann@@V?$vector@EV?$allocator@E@std@@@2@X@json_abi_v3_11_3@nlohmann@@@Z
?Serialize@UIElementComponent@@UEBAXAEAV?$basic_json@Vmap@std@@Vvector@2@V?$basic_string@DU?$char_traits@D@std@@V?$allocator@D@2@@2@_N_J_KNVallocator@2@Uadl_serializer@json_abi_v3_11_3@nlohmann@@V?$vector@EV?$allocator@E@std@@@2@X@json_abi_v3_11_3@nlohmann@@@Z
?Serialize@UIGridLayoutComponent@@UEBAXAEAV?$basic_json@Vmap@std@@Vvector@2@V?$basic_string@DU?$char_traits@D@std@@V?$allocator@D@2@@2@_N_J_KNVallocator@2@Uadl_serializer@json_abi_v3_11_3@nlohmann@@V?$vector@EV?$allocator@E@std@@@2@X@json_abi_v3_11_3@nlohmann@@@Z
?Serialize@UIImageComponent@@UEBAXAEAV?$basic_json@Vmap@std@@Vvector@2@V?$basic_string@DU?$char_traits@D@std@@V?$allocator@D@2@@2@_N_J_KNVallocator@2@Uadl_serializer@json_abi_v3_11_3@nlohmann@@V?$vector@EV?$allocator@E@std@@@2@X@json_abi_v3_11_3@nlohmann@@@Z
?Serialize@UILayoutGroupComponent@@UEBAXAEAV?$basic_json@Vmap@std@@Vvector@2@V?$basic_string@DU?$char_traits@D@std@@V?$allocator@D@2@@2@_N_J_KNVallocator@2@Uadl_serializer@json_abi_v3_11_3@nlohmann@@V?$vector@EV?$allocator@E@std@@@2@X@json_abi_v3_11_3@nlohmann@@@Z
?Serialize@UIProgressBarComponent@@UEBAXAEAV?$basic_json@Vmap@std@@Vvector@2@V?$basic_string@DU?$char_traits@D@std@@V?$allocator@D@2@@2@_N_J_KNVallocator@2@Uadl_serializer@json_abi_v3_11_3@nlohmann@@V?$vector@EV?$allocator@E@std@@@2@X@json_abi_v3_11_3@nlohmann@@@Z
?Serialize@UIRectTransformComponent@@UEBAXAEAV?$basic_json@Vmap@std@@Vvector@2@V?$basic_string@DU?$char_traits@D@std@@V?$allocator@D@2@@2@_N_J_KNVallocator@2@Uadl_serializer@json_abi_v3_11_3@nlohmann@@V?$vector@EV?$allocator@E@std@@@2@X@json_abi_v3_11_3@nlohmann@@@Z
?Serialize@UIScrollViewComponent@@UEBAXAEAV?$basic_json@Vmap@std@@Vvector@2@V?$basic_string@DU?$char_traits@D@std@@V?$allocator@D@2@@2@_N_J_KNVallocator@2@Uadl_serializer@json_abi_v3_11_3@nlohmann@@V?$vector@EV?$allocator@E@std@@@2@X@json_abi_v3_11_3@nlohmann@@@Z
?Serialize@UISliderComponent@@UEBAXAEAV?$basic_json@Vmap@std@@Vvector@2@V?$basic_string@DU?$char_traits@D@std@@V?$allocator@D@2@@2@_N_J_KNVallocator@2@Uadl_serializer@json_abi_v3_11_3@nlohmann@@V?$vector@EV?$allocator@E@std@@@2@X@json_abi_v3_11_3@nlohmann@@@Z
?Serialize@UITextComponent@@UEBAXAEAV?$basic_json@Vmap@std@@Vvector@2@V?$basic_string@DU?$char_traits@D@std@@V?$allocator@D@2@@2@_N_J_KNVallocator@2@Uadl_serializer@json_abi_v3_11_3@nlohmann@@V?$vector@EV?$allocator@E@std@@@2@X@json_abi_v3_11_3@nlohmann@@@Z
?SerializeCollider@ColliderComponent@@IEBAXAEAV?$basic_json@Vmap@std@@Vvector@2@V?$basic_string@DU?$char_traits@D@std@@V?$allocator@D@2@@2@_N_J_KNVallocator@2@Uadl_serializer@json_abi_v3_11_3@nlohmann@@V?$vector@EV?$allocator@E@std@@@2@X@json_abi_v3_11_3@nlohmann@@@Z
?SerializeShaderGraph@@YA?AV?$basic_json@Vmap@std@@Vvector@2@V?$basic_string@DU?$char_traits@D@std@@V?$allocator@D@2@@2@_N_J_KNVallocator@2@Uadl_serializer@json_abi_v3_11_3@nlohmann@@V?$vector@EV?$allocator@E@std@@@2@X@json_abi_v3_11_3@nlohmann@@AEBUShaderGraph@@@Z
?SerializeShaderProperties@@YA?AV?$basic_json@Vmap@std@@Vvector@2@V?$basic_string@DU?$char_traits@D@std@@V?$allocator@D@2@@2@_N_J_KNVallocator@2@Uadl_serializer@json_abi_v3_11_3@nlohmann@@V?$vector@EV?$allocator@E@std@@@2@X@json_abi_v3_11_3@nlohmann@@AEBV?$vector@UShaderPropertyDesc@@V?$allocator@UShaderPropertyDesc@@@std@@@std@@@Z
?Set@RuntimeFileSystem@@SAXV?$shared_ptr@VIReadOnlyFileSystem@@@std@@@Z
?SetAccessibilitySettings@UISystem@@QEAA_NAEBUUIAccessibilitySettings@@PEAV?$basic_string@DU?$char_traits@D@std@@V?$allocator@D@2@@std@@@Z
?SetActionLabel@RuntimeUIScreenStack@@QEAA_NAEBV?$basic_string@DU?$char_traits@D@std@@V?$allocator@D@2@@std@@0V23@@Z
?SetActive@Actor@@QEAAX_N@Z
?SetActualVelocity@CharacterControllerComponent@@AEAAXAEBUVec3@Math@@@Z
?SetAirControl@CharacterControllerComponent@@QEAAXM@Z
?SetAmbientIntensity@Scene@@QEAAXM@Z
?SetAngularAxisLocks@RigidBodyComponent@@QEAAXAEBUVec3@Math@@@Z
?SetAngularDamping@RigidBodyComponent@@QEAAXM@Z
?SetAngularVelocity@RigidBodyComponent@@QEAAXAEBUVec3@Math@@@Z
?SetAngularVelocityFromPhysics@RigidBodyComponent@@AEAAXAEBUVec3@Math@@@Z
?SetAnimation@SkinnedMeshRendererComponent@@QEAAXUAnimationClip@@@Z
?SetAnimationTime@SkinnedMeshRendererComponent@@QEAAXM@Z
?SetAntiAliasingStrength@PostProcessComponent@@QEAAXM@Z
?SetApplyRootMotion@AnimatorComponent@@QEAAX_N@Z
?SetAreaWalkable@NavigationWorld@@UEAA_NAEBUAABB@Math@@_N@Z
?SetAspect@Camera@@QEAAXM@Z
?SetAssetCpuBudgetBytes@AssetManager@@QEAAX_K@Z
?SetAssetPath@ParticleSystemComponent@@QEAAXAEBV?$basic_string@DU?$char_traits@D@std@@V?$allocator@D@2@@std@@@Z
?SetAttackDamage@EnemyAIComponent@@QEAAXM@Z
?SetAttackRange@EnemyAIComponent@@QEAAXM@Z
?SetBakedData@NavigationWorld@@UEAA_NAEBUNavMeshBakeSettings@@IIV?$vector@EV?$allocator@E@std@@@std@@@Z
?SetBaseState@GameFlowController@@AEAAXW4GameFlowState@@PEAVScene@@@Z
?SetBlendAnimation@SkinnedMeshRendererComponent@@QEAAXUAnimationClip@@M@Z
?SetBlendDistance@ReflectionProbeComponent@@QEAAXM@Z
?SetBlendDistance@SHProbeVolumeComponent@@QEAAXM@Z
?SetBlendWeight@SkinnedMeshRendererComponent@@QEAAXM@Z
?SetBloomEnabled@PostProcessComponent@@QEAAX_N@Z
?SetBloomIntensity@PostProcessComponent@@QEAAXM@Z
?SetBloomThreshold@PostProcessComponent@@QEAAXM@Z
?SetBodyType@RigidBodyComponent@@QEAAXW4BodyType@@@Z
?SetBool@AnimatorComponent@@QEAAXAEBV?$basic_string@DU?$char_traits@D@std@@V?$allocator@D@2@@std@@_N@Z
?SetBoxExtents@ReflectionProbeComponent@@QEAAXAEBUVec3@Math@@@Z
?SetBoxExtents@SHProbeVolumeComponent@@QEAAXAEBUVec3@Math@@@Z
?SetBudgets@WorldZoneStreamer@@QEAAX_K0@Z
?SetBus@AudioSourceComponent@@QEAAXW4AudioBus@@@Z
?SetBusMuted@AudioEngine@@QEAAXW4AudioBus@@_N@Z
?SetBusPauseWithGame@AudioEngine@@QEAAXW4AudioBus@@_N@Z
?SetBusVolume@AudioEngine@@QEAAXW4AudioBus@@M@Z
?SetCameraMode@Camera@@QEAAXW4CameraMode@@@Z
?SetCanvasSpace@UICanvas@@QEAAXW4UICanvasSpace@@@Z
?SetCaptureOffset@ReflectionProbeComponent@@QEAAXAEBUVec3@Math@@@Z
?SetCastShadows@LightComponent@@QEAAX_N@Z
?SetClassName@ScriptComponent@@QEAAXV?$basic_string@DU?$char_traits@D@std@@V?$allocator@D@2@@std@@@Z
?SetClassName@UIElementComponent@@QEAAXV?$basic_string@DU?$char_traits@D@std@@V?$allocator@D@2@@std@@@Z
?SetClearColor@CameraComponent@@QEAAXAEBUVec3@Math@@@Z
?SetClip@AudioSourceComponent@@QEAAXV?$AssetHandle@VAudioClipAsset@@@@@Z
?SetClipPath@AudioSourceComponent@@QEAAXAEBV?$basic_string@DU?$char_traits@D@std@@V?$allocator@D@2@@std@@@Z
?SetCodeDescription@ShaderAsset@@QEAAXIV?$array@V?$array@UShaderStageSource@@$02@std@@$03@std@@V?$vector@V?$basic_string@DU?$char_traits@D@std@@V?$allocator@D@2@@std@@V?$allocator@V?$basic_string@DU?$char_traits@D@std@@V?$allocator@D@2@@std@@@2@@3@V?$vector@UShaderPropertyDesc@@V?$allocator@UShaderPropertyDesc@@@std@@@3@W4ShaderDomain@@_K@Z
?SetCollisionDetectionMode@RigidBodyComponent@@QEAAXW4CollisionDetectionMode@@@Z
?SetCollisionRadius@ThirdPersonCameraComponent@@QEAAXM@Z
?SetColor@LightComponent@@QEAAXAEBUVec3@Math@@@Z
?SetConcurrencyGroup@AudioSourceComponent@@QEAAXV?$basic_string@DU?$char_traits@D@std@@V?$allocator@D@2@@std@@@Z
?SetContext@UICanvas@@QEAAXPEAVContext@Rml@@@Z
?SetContrast@PostProcessComponent@@QEAAXM@Z
?SetController@AnimatorComponent@@QEAAXVAnimatorController@@@Z
?SetCooked@ShaderAsset@@QEAAXI_KV?$array@V?$array@V?$vector@EV?$allocator@E@std@@@std@@$02@std@@$03@std@@@Z
?SetCookedPasses@ShaderAsset@@QEAAXI_KW4ShaderSourceMode@@W4ShaderDomain@@W4ShaderShadingModel@@W4ShaderSurfaceType@@V?$vector@UShaderPropertyDesc@@V?$allocator@UShaderPropertyDesc@@@std@@@std@@V?$array@V?$array@V?$array@V?$vector@EV?$allocator@E@std@@@std@@$02@std@@$03@std@@$03@7@V?$array@V?$array@V?$array@UCookedShaderStageReflection@@$02@std@@$03@std@@$03@7@I@Z
?SetDamage@HitboxComponent@@QEAAXM@Z
?SetDamageMultiplier@HurtboxComponent@@QEAAXM@Z
?SetDebugDrawViewMask@RenderViewport@@QEAAXW4DebugDrawViewMask@@@Z
?SetDebugDrawViewMask@Renderer@@QEAAXW4DebugDrawViewMask@@@Z
?SetDebugView@RenderViewport@@QEAAXW4RendererDebugView@@@Z
?SetDebugView@Renderer@@QEAAXW4RendererDebugView@@@Z
?SetDefaultActionMap@Input@@SAXXZ
?SetDefaultBudget@GpuUploadQueue@@QEAAXUGpuUploadBudget@@@Z
?SetDefaultFontPaths@UICanvas@@QEAAXV?$vector@V?$basic_string@DU?$char_traits@D@std@@V?$allocator@D@2@@std@@V?$allocator@V?$basic_string@DU?$char_traits@D@std@@V?$allocator@D@2@@std@@@2@@std@@@Z
?SetDefaultFontPaths@UICanvasComponent@@QEAAXV?$vector@V?$basic_string@DU?$char_traits@D@std@@V?$allocator@D@2@@std@@V?$allocator@V?$basic_string@DU?$char_traits@D@std@@V?$allocator@D@2@@std@@@2@@std@@@Z
?SetDeferredPayload@TextureAsset@@QEAAXV?$basic_string@DU?$char_traits@D@std@@V?$allocator@D@2@@std@@AEBUTextureDesc@@@Z
?SetDependencies@Asset@@AEAAXV?$vector@_KV?$allocator@_K@std@@@std@@@Z
?SetDependencyHash@LightingProbeAsset@@QEAAX_K@Z
?SetDepthInput@DeferredLightingPass@@QEAAXV?$shared_ptr@UGpuTextureView@@@std@@@Z
?SetDescription@ShaderAsset@@QEAAXIV?$array@UShaderStageSource@@$02@std@@V?$vector@V?$basic_string@DU?$char_traits@D@std@@V?$allocator@D@2@@std@@V?$allocator@V?$basic_string@DU?$char_traits@D@std@@V?$allocator@D@2@@std@@@2@@3@_K@Z
?SetDestination@NavAgentComponent@@QEAA_NAEBUVec3@Math@@@Z
?SetDestroyOnUse@InteractionComponent@@QEAAX_N@Z
?SetDetectionRange@EnemyAIComponent@@QEAAXM@Z
?SetDevice@GpuSceneDatabase@@QEAAXPEAVIRHIDevice@@@Z
?SetDevice@MaterialResourceCache@@QEAAXPEAVIRHIDevice@@@Z
?SetDevice@ShaderManager@@QEAAXPEAVIRHIDevice@@@Z
?SetDeviceProfile@RenderViewport@@QEAAXW4GraphicsDeviceProfile@@@Z
?SetDeviceProfile@Renderer@@QEAAXW4GraphicsDeviceProfile@@@Z
?SetDeviceProfile@SceneRenderLayer@@QEAAXW4GraphicsDeviceProfile@@@Z
?SetDirectionalShadowInput@ModernDeferredPipeline@@QEAAX_NAEBV?$shared_ptr@UGpuTextureView@@@std@@PEBUMat4@@IPEBMM@Z
?SetDistance@ThirdPersonCameraComponent@@QEAAXM@Z
?SetDocumentPath@UICanvas@@QEAAXV?$basic_string@DU?$char_traits@D@std@@V?$allocator@D@2@@std@@@Z
?SetDocumentPath@UICanvasComponent@@QEAAXV?$basic_string@DU?$char_traits@D@std@@V?$allocator@D@2@@std@@@Z
?SetEditorFlags@Actor@@QEAAXI@Z
?SetElementID@UIElementComponent@@QEAAXV?$basic_string@DU?$char_traits@D@std@@V?$allocator@D@2@@std@@@Z
?SetEnabled@Component@@QEAAX_N@Z
?SetEngineContentRoot@AssetManager@@QEAAXVpath@filesystem@std@@@Z
?SetEntryState@AnimatorController@@QEAAXV?$basic_string@DU?$char_traits@D@std@@V?$allocator@D@2@@std@@@Z
?SetEnvironmentColor@SkylightComponent@@QEAAXAEBUVec3@Math@@@Z
?SetEnvironmentInput@DeferredLightingPass@@QEAAXPEAUGpuTexture@@V?$shared_ptr@UGpuBufferView@@@std@@@Z
?SetEnvironmentIntensity@SkylightComponent@@QEAAXM@Z
?SetError@ProjectConfig@@CAXPEAV?$basic_string@DU?$char_traits@D@std@@V?$allocator@D@2@@std@@V23@@Z
?SetError@RenderGraph@@AEAA_NW4ErrorCode@1@V?$basic_string@DU?$char_traits@D@std@@V?$allocator@D@2@@std@@@Z
?SetEventBridge@UISystem@@QEAAXPEAVUIEventBridge@@@Z
?SetExitCode@Engine@@QEAAXH@Z
?SetExposure@PostProcessComponent@@QEAAXM@Z
?SetExtensionData@Component@@QEAAXV?$basic_json@Vmap@std@@Vvector@2@V?$basic_string@DU?$char_traits@D@std@@V?$allocator@D@2@@2@_N_J_KNVallocator@2@Uadl_serializer@json_abi_v3_11_3@nlohmann@@V?$vector@EV?$allocator@E@std@@@2@X@json_abi_v3_11_3@nlohmann@@@Z
?SetFar@Camera@@QEAAXM@Z
?SetFarClip@CameraComponent@@QEAAXM@Z
?SetFatalHealthCheck@Engine@@QEAAXV?$function@$$A6A?AV?$optional@V?$basic_string@DU?$char_traits@D@std@@V?$allocator@D@2@@std@@@std@@XZ@std@@@Z
?SetFeatureMask@RenderViewport@@QEAAXW4RendererFeatureMask@@@Z
?SetFeatureMask@Renderer@@QEAAXW4RendererFeatureMask@@@Z
?SetFieldOfViewDegrees@EnemyAIComponent@@QEAAXM@Z
?SetFinalState@RenderGraph@@QEAAXURGBufferHandle@@W4RHIResourceState@@@Z
?SetFinalState@RenderGraph@@QEAAXURGTextureHandle@@W4RHIResourceState@@@Z
?SetFixedDelta@WorldFrameScheduler@@QEAAXM@Z
?SetFloat@AnimatorComponent@@QEAAXAEBV?$basic_string@DU?$char_traits@D@std@@V?$allocator@D@2@@std@@M@Z
?SetFocusedIndex@RuntimeUIScreenStack@@QEAA_N_K@Z
?SetFollowSharpness@ThirdPersonCameraComponent@@QEAAXM@Z
?SetFovY@Camera@@QEAAXM@Z
?SetFovYDegrees@CameraComponent@@QEAAXM@Z
?SetFrameCounters@RuntimeQualityDegradation@@SAX_K0@Z
?SetFriction@RigidBodyComponent@@QEAAXM@Z
?SetGBufferInput@DeferredLightingPass@@QEAAXV?$shared_ptr@UGpuTextureView@@@std@@000@Z
?SetGameFlowController@Scene@@QEAAXPEAVGameFlowController@@@Z
?SetGameViewportActive@SceneRenderLayer@@QEAAX_N@Z
?SetGamepadVibration@Input@@SA_NIMMI@Z
?SetGameplayInputEnabled@Input@@SAX_N@Z
?SetGamma@PostProcessComponent@@QEAAXM@Z
?SetGeneratedStylePaths@UICanvasComponent@@QEAAXV?$vector@V?$basic_string@DU?$char_traits@D@std@@V?$allocator@D@2@@std@@V?$allocator@V?$basic_string@DU?$char_traits@D@std@@V?$allocator@D@2@@std@@@2@@std@@@Z
?SetGeometry@MeshAsset@@QEAAXV?$vector@UMeshVertex@@V?$allocator@UMeshVertex@@@std@@@std@@V?$vector@IV?$allocator@I@std@@@3@V?$vector@USubMesh@@V?$allocator@USubMesh@@@std@@@3@@Z
?SetGlyphLocale@Input@@SAXV?$basic_string@DU?$char_traits@D@std@@V?$allocator@D@2@@std@@@Z
?SetGpuHandle@TextureAsset@@QEAAXPEAX@Z
?SetGraphDescription@ShaderAsset@@QEAAXUShaderGraph@@V?$vector@UShaderPropertyDesc@@V?$allocator@UShaderPropertyDesc@@@std@@@std@@W4ShaderShadingModel@@W4ShaderSurfaceType@@_KV?$vector@UShaderGraphDiagnostic@@V?$allocator@UShaderGraphDiagnostic@@@std@@@4@@Z
?SetGridSpacing@SHProbeVolumeComponent@@QEAAXM@Z
?SetGroundTint@SkylightComponent@@QEAAXAEBUVec3@Math@@@Z
?SetGrounded@CharacterControllerComponent@@AEAAX_N@Z
?SetHalfExtents@BoxColliderComponent@@QEAAXAEBUVec3@Math@@@Z
?SetHalfHeight@CapsuleColliderComponent@@QEAAXM@Z
?SetHardwareRayTracingEnabled@ModernDeferredPipeline@@QEAAX_N@Z
?SetHardwareRayTracingEnabled@RenderViewport@@QEAAX_N@Z
?SetHardwareRayTracingEnabled@Renderer@@QEAAX_N@Z
?SetHardwareRayTracingEnabled@SceneRenderLayer@@QEAAX_N@Z
?SetHealth@HealthComponent@@QEAAXM@Z
?SetHorizonTint@SkylightComponent@@QEAAXAEBUVec3@Math@@@Z
?SetIconRoot@IconsManager@@QEAAXVpath@filesystem@std@@@Z
?SetIndexBuffer@MeshAsset@@QEAAXV?$shared_ptr@UGpuBuffer@@@std@@@Z
?SetInnerConeAngle@LightComponent@@QEAAXM@Z
?SetInputConfigPath@ProjectConfig@@QEAA_NAEBVpath@filesystem@std@@PEAV?$basic_string@DU?$char_traits@D@std@@V?$allocator@D@2@@4@@Z
?SetInputEnabled@RenderViewport@@QEAAX_N@Z
?SetInputEnabled@SceneViewport@@QEAAX_N@Z
?SetInputMode@UICanvas@@QEAAXW4UIInputMode@@@Z
?SetInputMode@UICanvasComponent@@QEAAXW4UIInputMode@@@Z
?SetInspectorFields@ScriptComponent@@QEAAXV?$basic_json@Vmap@std@@Vvector@2@V?$basic_string@DU?$char_traits@D@std@@V?$allocator@D@2@@2@_N_J_KNVallocator@2@Uadl_serializer@json_abi_v3_11_3@nlohmann@@V?$vector@EV?$allocator@E@std@@@2@X@json_abi_v3_11_3@nlohmann@@@Z
?SetInstanceOverrides@PrefabSystem@@SA_NAEAVActor@@V?$basic_json@Vmap@std@@Vvector@2@V?$basic_string@DU?$char_traits@D@std@@V?$allocator@D@2@@2@_N_J_KNVallocator@2@Uadl_serializer@json_abi_v3_11_3@nlohmann@@V?$vector@EV?$allocator@E@std@@@2@X@json_abi_v3_11_3@nlohmann@@PEAV?$basic_string@DU?$char_traits@D@std@@V?$allocator@D@2@@std@@@Z
?SetIntensity@LightComponent@@QEAAXM@Z
?SetIntensity@ReflectionProbeComponent@@QEAAXM@Z
?SetIntensity@SHProbeVolumeComponent@@QEAAXM@Z
?SetInteractive@UICanvas@@QEAAX_N@Z
?SetInteractive@UICanvasComponent@@QEAAX_N@Z
?SetJumpSpeed@CharacterControllerComponent@@QEAAXM@Z
?SetKind@InteractionComponent@@QEAAXW4InteractionKind@@@Z
?SetKinematicTarget@RigidBodyComponent@@QEAAXAEBUVec3@Math@@0@Z
?SetLayer@Actor@@QEAAXI@Z
?SetLayer@ColliderComponent@@QEAAXI@Z
?SetLayerMask@ColliderComponent@@QEAAXI@Z
?SetLayerMask@HitboxComponent@@QEAAXI@Z
?SetLayerMask@ReflectionProbeComponent@@QEAAXI@Z
?SetLayerMask@SHProbeVolumeComponent@@QEAAXI@Z
?SetLevel@RuntimeQualityDegradation@@SAXI@Z
?SetLightType@LightComponent@@QEAAXW4LightType@@@Z
?SetLightingInput@DeferredLightingPass@@QEAAXAEBUSceneLightData@@@Z
?SetLightingProbeAssetPath@Scene@@QEAAXV?$basic_string@DU?$char_traits@D@std@@V?$allocator@D@2@@std@@@Z
?SetLightingProbeBakeSettings@Scene@@QEAAXAEBULightingProbeBakeSettings@@@Z
?SetLinearAxisLocks@RigidBodyComponent@@QEAAXAEBUVec3@Math@@@Z
?SetLinearDamping@RigidBodyComponent@@QEAAXM@Z
?SetListenerTransform@AudioEngine@@QEAAXAEBUVec3@Math@@00@Z
?SetLocalLightingProbesEnabled@Renderer@@QEAAX_N@Z
?SetLoop@AudioSourceComponent@@QEAAX_N@Z
?SetMainCamera@CameraComponent@@QEAAX_N@Z
?SetMainCameraHintActorID@Scene@@QEAAX_K@Z
?SetMass@RigidBodyComponent@@QEAAXM@Z
?SetMasterVolume@AudioEngine@@QEAAXM@Z
?SetMaterial@MeshRendererComponent@@QEAAXV?$AssetHandle@VMaterialAsset@@@@@Z
?SetMaterial@ParticleSystemComponent@@QEAAXV?$AssetHandle@VMaterialAsset@@@@@Z
?SetMaterial@SkinnedMeshRendererComponent@@QEAAXV?$AssetHandle@VMaterialAsset@@@@@Z
?SetMaterialPreviewActive@SceneRenderLayer@@QEAAX_N@Z
?SetMaterialPreviewRealtime@SceneRenderLayer@@QEAAX_N@Z
?SetMaterialSlot@MeshRendererComponent@@QEAAX_KV?$AssetHandle@VMaterialAsset@@@@@Z
?SetMaterials@MeshRendererComponent@@QEAAXV?$vector@V?$AssetHandle@VMaterialAsset@@@@V?$allocator@V?$AssetHandle@VMaterialAsset@@@@@std@@@std@@@Z
?SetMaxDistance@AudioSourceComponent@@QEAAXM@Z
?SetMaxHealth@HealthComponent@@QEAAXM_N@Z
?SetMaxInstances@AudioSourceComponent@@QEAAXI@Z
?SetMaxSlopeAngle@CharacterControllerComponent@@QEAAXM@Z
?SetMaxVoices@AudioEngine@@QEAAXI@Z
?SetMesh@MeshRendererComponent@@QEAAXV?$AssetHandle@VMeshAsset@@@@@Z
?SetMinDistance@AudioSourceComponent@@QEAAXM@Z
?SetName@Actor@@QEAAXAEBV?$basic_string@DU?$char_traits@D@std@@V?$allocator@D@2@@std@@@Z
?SetName@Asset@@QEAAXAEBV?$basic_string@DU?$char_traits@D@std@@V?$allocator@D@2@@std@@@Z
?SetName@ProjectConfig@@QEAAXV?$basic_string@DU?$char_traits@D@std@@V?$allocator@D@2@@std@@@Z
?SetName@Scene@@QEAAXAEBV?$basic_string@DU?$char_traits@D@std@@V?$allocator@D@2@@std@@@Z
?SetNavMeshAssetPath@Scene@@QEAAXV?$basic_string@DU?$char_traits@D@std@@V?$allocator@D@2@@std@@@Z
?SetNear@Camera@@QEAAXM@Z
?SetNearClip@CameraComponent@@QEAAXM@Z
?SetNextFaultForTesting@TransactionalFileWriter@@SAXW4TransactionalWriteFault@@@Z
?SetNextID@Scene@@QEAAX_K@Z
?SetObserverPosition@WorldZoneStreamer@@QEAAXAEBUVec3@Math@@@Z
?SetOffset@HitboxComponent@@QEAAXAEBUVec3@Math@@@Z
?SetOrtho@Camera@@QEAAXMMMM@Z
?SetOuterConeAngle@LightComponent@@QEAAXM@Z
?SetOutputOffscreen@Renderer@@QEAAX_N@Z
?SetParent@Actor@@QEAAXPEAV1@@Z
?SetPauseWhenUnfocused@SceneLayer@@QEAAX_N@Z
?SetPaused@AudioEngine@@QEAAX_N@Z
?SetPersistentIdentity@Asset@@AEAAX_KV?$basic_string@DU?$char_traits@D@std@@V?$allocator@D@2@@std@@@Z
?SetPersistentValue@SceneManager@@QEAAXAEBV?$basic_string@DU?$char_traits@D@std@@V?$allocator@D@2@@std@@V?$basic_json@Vmap@std@@Vvector@2@V?$basic_string@DU?$char_traits@D@std@@V?$allocator@D@2@@2@_N_J_KNVallocator@2@Uadl_serializer@json_abi_v3_11_3@nlohmann@@V?$vector@EV?$allocator@E@std@@@2@X@json_abi_v3_11_3@nlohmann@@@Z
?SetPerspective@Camera@@QEAAXMMMM@Z
?SetPitch@AudioSourceComponent@@QEAAXM@Z
?SetPixelData@TextureAsset@@QEAAXV?$vector@EV?$allocator@E@std@@@std@@AEBUTextureDesc@@@Z
?SetPixelDataWithMips@TextureAsset@@QEAAXV?$vector@EV?$allocator@E@std@@@std@@AEBUTextureDesc@@V?$vector@UTextureMipData@@V?$allocator@UTextureMipData@@@std@@@3@@Z
?SetPlatformEventBridge@Engine@@QEAAXPEAVIPlatformEventBridge@@@Z
?SetPlayOnStart@AudioSourceComponent@@QEAAX_N@Z
?SetPlaying@SkinnedMeshRendererComponent@@QEAAX_N@Z
?SetPortalOpen@WorldZoneStreamer@@QEAA_NAEBV?$basic_string@DU?$char_traits@D@std@@V?$allocator@D@2@@std@@_N@Z
?SetPosition@Camera@@QEAAXAEBUVec3@Math@@@Z
?SetPreloadAssets@Scene@@QEAAXV?$vector@V?$basic_string@DU?$char_traits@D@std@@V?$allocator@D@2@@std@@V?$allocator@V?$basic_string@DU?$char_traits@D@std@@V?$allocator@D@2@@std@@@2@@std@@@Z
?SetPresentEnabled@SceneRenderLayer@@QEAAX_N@Z
?SetPrimary@AudioListenerComponent@@QEAAX_N@Z
?SetPriority@AudioSourceComponent@@QEAAXH@Z
?SetPriority@ReflectionProbeComponent@@QEAAXH@Z
?SetPriority@SHProbeVolumeComponent@@QEAAXH@Z
?SetProbeId@ReflectionProbeComponent@@QEAAXV?$basic_string@DU?$char_traits@D@std@@V?$allocator@D@2@@std@@@Z
?SetProbeId@SHProbeVolumeComponent@@QEAAXV?$basic_string@DU?$char_traits@D@std@@V?$allocator@D@2@@std@@@Z
?SetProbeInput@DeferredLightingPass@@QEAAXV?$shared_ptr@UGpuTextureView@@@std@@V?$shared_ptr@UGpuBufferView@@@3@11III@Z
?SetProbeInput@ModernDeferredPipeline@@QEAAXV?$shared_ptr@UGpuTextureView@@@std@@V?$shared_ptr@UGpuBufferView@@@3@11III@Z
?SetProjectRoot@AssetManager@@QEAAXVpath@filesystem@std@@@Z
?SetProjectRoot@MountedFileSystem@@QEAAXVpath@filesystem@std@@@Z
?SetProjectionMode@Camera@@QEAAXW4ProjectionMode@@@Z
?SetProjectionMode@SceneViewport@@QEAAXW4ProjectionMode@@@Z
?SetPrompt@InteractionComponent@@QEAAXV?$basic_string@DU?$char_traits@D@std@@V?$allocator@D@2@@std@@@Z
?SetProperties@ScriptComponent@@QEAAXV?$basic_json@Vmap@std@@Vvector@2@V?$basic_string@DU?$char_traits@D@std@@V?$allocator@D@2@@2@_N_J_KNVallocator@2@Uadl_serializer@json_abi_v3_11_3@nlohmann@@V?$vector@EV?$allocator@E@std@@@2@X@json_abi_v3_11_3@nlohmann@@@Z
?SetProperty@TypeRegistry@@QEBA_NAEAVComponent@@AEBV?$basic_string@DU?$char_traits@D@std@@V?$allocator@D@2@@std@@AEBV?$basic_json@Vmap@std@@Vvector@2@V?$basic_string@DU?$char_traits@D@std@@V?$allocator@D@2@@2@_N_J_KNVallocator@2@Uadl_serializer@json_abi_v3_11_3@nlohmann@@V?$vector@EV?$allocator@E@std@@@2@X@json_abi_v3_11_3@nlohmann@@PEAV34@@Z
?SetPropertyValue@ScriptComponent@@QEAA_NAEBV?$basic_string@DU?$char_traits@D@std@@V?$allocator@D@2@@std@@V?$basic_json@Vmap@std@@Vvector@2@V?$basic_string@DU?$char_traits@D@std@@V?$allocator@D@2@@2@_N_J_KNVallocator@2@Uadl_serializer@json_abi_v3_11_3@nlohmann@@V?$vector@EV?$allocator@E@std@@@2@X@json_abi_v3_11_3@nlohmann@@@Z
?SetQualityProfile@ModernDeferredPipeline@@QEAAXW4QualityProfile@1@@Z
?SetRTReflectionAtrousRadiusScale@PostProcessComponent@@QEAAXM@Z
?SetRTReflectionIntensityClamp@PostProcessComponent@@QEAAXM@Z
?SetRadius@CapsuleColliderComponent@@QEAAXM@Z
?SetRadius@HitboxComponent@@QEAAXM@Z
?SetRadius@SphereColliderComponent@@QEAAXM@Z
?SetRange@InteractionComponent@@QEAAXM@Z
?SetRange@LightComponent@@QEAAXM@Z
?SetRayTracedAOReplacement@PostProcessComponent@@QEAAX_N@Z
?SetRayTracedDiffuseReplacement@PostProcessComponent@@QEAAX_N@Z
?SetRayTracedReflectionReplacement@PostProcessComponent@@QEAAX_N@Z
?SetRayTracedShadowReplacement@PostProcessComponent@@QEAAX_N@Z
?SetReduceCameraShake@RuntimeAccessibility@@SAX_N@Z
?SetReflectionMipCount@LightingProbeAsset@@QEAAXI@Z
?SetReflectionResolution@LightingProbeAsset@@QEAAXI@Z
?SetRenderPath@RenderViewport@@QEAAXW4RenderPath@@@Z
?SetRenderPath@Renderer@@QEAAXW4RenderPath@@@Z
?SetRenderPath@SceneRenderLayer@@QEAAXW4RenderPath@@@Z
?SetRendererStats@FrameStatsProvider@@SAXAEBURendererFrameStats@@@Z
?SetResolver@ShaderCacheService@@QEAAXV?$function@$$A6A?AUShaderCacheResult@@AEBUShaderCacheRequest@@@Z@std@@V?$function@$$A6A?AV?$vector@UShaderCacheResult@@V?$allocator@UShaderCacheResult@@@std@@@std@@AEBV?$vector@UShaderCacheRequest@@V?$allocator@UShaderCacheRequest@@@std@@@2@@Z@3@@Z
?SetResolverWithCancellation@ShaderCacheService@@QEAAXV?$function@$$A6A?AUShaderCacheResult@@AEBUShaderCacheRequest@@@Z@std@@V?$function@$$A6A?AV?$vector@UShaderCacheResult@@V?$allocator@UShaderCacheResult@@@std@@@std@@AEBV?$vector@UShaderCacheRequest@@V?$allocator@UShaderCacheRequest@@@std@@@2@AEBV?$shared_ptr@VShaderCacheBatchCancellation@@@2@@Z@3@@Z
?SetResourceBudget@RenderGraph@@QEAA_NAEBURenderGraphResourceBudget@@PEAV?$basic_string@DU?$char_traits@D@std@@V?$allocator@D@2@@std@@@Z
?SetResourceStats@FrameStatsProvider@@SAXAEBURuntimeResourceFrameStats@@@Z
?SetRestitution@RigidBodyComponent@@QEAAXM@Z
?SetRuntimePreferences@Input@@SAXM_NMMM@Z
?SetRuntimeScreen@UISystem@@QEAAXURuntimeUIScreenView@@@Z
?SetRuntimeScreensEnabled@SceneRenderLayer@@QEAAX_N@Z
?SetSSAOBias@PostProcessComponent@@QEAAXM@Z
?SetSSAOHalfResolution@PostProcessComponent@@QEAAX_N@Z
?SetSSAOIntensity@PostProcessComponent@@QEAAXM@Z
?SetSSAOPower@PostProcessComponent@@QEAAXM@Z
?SetSSAORadius@PostProcessComponent@@QEAAXM@Z
?SetSSAOSampleCount@PostProcessComponent@@QEAAXI@Z
?SetSSAOScale@PostProcessComponent@@QEAAXM@Z
?SetSSGIEnabled@PostProcessComponent@@QEAAX_N@Z
?SetSSGIFilterRounds@PostProcessComponent@@QEAAXI@Z
?SetSSGIHalfResolution@PostProcessComponent@@QEAAX_N@Z
?SetSSGIHistoryWeight@PostProcessComponent@@QEAAXM@Z
?SetSSGIIntensity@PostProcessComponent@@QEAAXM@Z
?SetSSGIMaxDistance@PostProcessComponent@@QEAAXM@Z
?SetSSGIStepCount@PostProcessComponent@@QEAAXI@Z
?SetSSREnabled@PostProcessComponent@@QEAAX_N@Z
?SetSSRFilterRounds@PostProcessComponent@@QEAAXI@Z
?SetSSRHalfResolution@PostProcessComponent@@QEAAX_N@Z
?SetSSRHistoryWeight@PostProcessComponent@@QEAAXM@Z
?SetSSRMaxDistance@PostProcessComponent@@QEAAXM@Z
?SetSSRMaxRoughness@PostProcessComponent@@QEAAXM@Z
?SetSSRStepCount@PostProcessComponent@@QEAAXI@Z
?SetSafeAreaInsets@UISystem@@QEAA_NAEBUUISafeAreaInsets@@PEAV?$basic_string@DU?$char_traits@D@std@@V?$allocator@D@2@@std@@@Z
?SetSampler@TextureAsset@@QEAAXW4TextureFilter@@W4TextureWrap@@1@Z
?SetSaturation@PostProcessComponent@@QEAAXM@Z
?SetSceneActorBudget@MemoryService@@QEAAX_K@Z
?SetSceneDebugView@SceneRenderLayer@@QEAAXW4RendererDebugView@@@Z
?SetSceneGuid@LightingProbeAsset@@QEAAXV?$basic_string@DU?$char_traits@D@std@@V?$allocator@D@2@@std@@@Z
?SetSceneManager@Scene@@QEAAXPEAVSceneManager@@@Z
?SetSceneViewportActive@SceneRenderLayer@@QEAAX_N@Z
?SetSceneViewportUsesSimulationScene@SceneRenderLayer@@QEAAX_N@Z
?SetScriptPath@ScriptComponent@@QEAAXV?$basic_string@DU?$char_traits@D@std@@V?$allocator@D@2@@std@@@Z
?SetSensitivity@ThirdPersonCameraComponent@@QEAAXM@Z
?SetShaderCacheMode@ShaderManager@@QEAAXW4ShaderCacheMode@@@Z
?SetShadowInput@DeferredLightingPass@@QEAAXAEBUMat4@@_NPEAUGpuTexture@@0H2AEBUVec3@Math@@MH2PEBU2@IPEBM@Z
?SetShadowIntensity@LightComponent@@QEAAXM@Z
?SetShadowMapResolution@Renderer@@QEAAXI@Z
?SetSingleUse@InteractionComponent@@QEAAX_N@Z
?SetSink@Logger@@SAXV?$function@$$A6AXAEBV?$basic_string@DU?$char_traits@D@std@@V?$allocator@D@2@@std@@@Z@std@@@Z
?SetSkeleton@SkinnedMeshRendererComponent@@QEAAXV?$vector@UBone@@V?$allocator@UBone@@@std@@@std@@V?$vector@USkinWeight@@V?$allocator@USkinWeight@@@std@@@3@@Z
?SetSkyIntensity@SkylightComponent@@QEAAXM@Z
?SetSkyTint@SkylightComponent@@QEAAXAEBUVec3@Math@@@Z
?SetSleepingFromPhysics@RigidBodyComponent@@AEAAX_N@Z
?SetSortOrder@UICanvas@@QEAAXH@Z
?SetSortOrder@UICanvasComponent@@QEAAXH@Z
?SetSoundBus@AudioEngine@@QEAAX_KW4AudioBus@@@Z
?SetSoundPitch@AudioEngine@@QEAAX_KM@Z
?SetSoundPosition@AudioEngine@@QEAAX_KAEBUVec3@Math@@@Z
?SetSoundVolume@AudioEngine@@QEAAX_KM@Z
?SetSource@ScriptComponent@@QEAAXV?$basic_string@DU?$char_traits@D@std@@V?$allocator@D@2@@std@@@Z
?SetSourceMesh@SkinnedMeshRendererComponent@@QEAAXV?$AssetHandle@VMeshAsset@@@@@Z
?SetSourceMode@UICanvasComponent@@QEAAXW4UICanvasSourceMode@@@Z
?SetSpatial@AudioSourceComponent@@QEAAX_N@Z
?SetSpeed@NavAgentComponent@@QEAAXM@Z
?SetStartupScene@ProjectConfig@@QEAA_NAEBVpath@filesystem@std@@PEAV?$basic_string@DU?$char_traits@D@std@@V?$allocator@D@2@@4@@Z
?SetState@Asset@@IEAAXW4AssetState@@@Z
?SetStatic@Actor@@QEAAX_N@Z
?SetStaticGeometryOnly@Renderer@@QEAAX_N@Z
?SetStepOffset@CharacterControllerComponent@@QEAAXM@Z
?SetStoppingDistance@NavAgentComponent@@QEAAXM@Z
?SetStorageRoot@RuntimeUserSettingsStore@@SAXVpath@filesystem@std@@@Z
?SetStorageRoot@SaveGame@@SAXVpath@filesystem@std@@@Z
?SetStreaming@AudioSourceComponent@@QEAAX_N@Z
?SetStylePaths@UICanvas@@QEAAXV?$vector@V?$basic_string@DU?$char_traits@D@std@@V?$allocator@D@2@@std@@V?$allocator@V?$basic_string@DU?$char_traits@D@std@@V?$allocator@D@2@@std@@@2@@std@@@Z
?SetStylePaths@UICanvasComponent@@QEAAXV?$vector@V?$basic_string@DU?$char_traits@D@std@@V?$allocator@D@2@@std@@V?$allocator@V?$basic_string@DU?$char_traits@D@std@@V?$allocator@D@2@@std@@@2@@std@@@Z
?SetSystemOverlay@UISystem@@QEAAXUUISystemOverlayState@@@Z
?SetTAAEnabled@PostProcessComponent@@QEAAX_N@Z
?SetTAAHistoryClipExpansion@PostProcessComponent@@QEAAXM@Z
?SetTAAHistoryWeight@PostProcessComponent@@QEAAXM@Z
?SetTAAJitterSpread@PostProcessComponent@@QEAAXM@Z
?SetTag@Actor@@QEAAXV?$basic_string@DU?$char_traits@D@std@@V?$allocator@D@2@@std@@@Z
?SetTarget@Camera@@QEAAXAEBUVec3@Math@@@Z
?SetTarget@EnemyAIComponent@@QEAAXUActorHandle@@@Z
?SetTarget@ThirdPersonCameraComponent@@QEAAXUActorHandle@@@Z
?SetTargetOffset@ThirdPersonCameraComponent@@QEAAXAEBUVec3@Math@@@Z
?SetTeam@HitboxComponent@@QEAAXI@Z
?SetTeam@HurtboxComponent@@QEAAXI@Z
?SetTextureUploadBudgetBytes@MaterialResourceCache@@QEAAX_K@Z
?SetTimeScale@Scene@@QEAAXM@Z
?SetToneMappingEnabled@PostProcessComponent@@QEAAX_N@Z
?SetTrigger@AnimatorComponent@@QEAAXAEBV?$basic_string@DU?$char_traits@D@std@@V?$allocator@D@2@@std@@@Z
?SetTrigger@ColliderComponent@@QEAAX_N@Z
?SetUIAccessibilitySettings@SceneRenderLayer@@QEAA_NAEBUUIAccessibilitySettings@@PEAV?$basic_string@DU?$char_traits@D@std@@V?$allocator@D@2@@std@@@Z
?SetUIDrawList@Renderer@@QEAAXPEBVUIDrawList@@@Z
?SetUIEventBridge@AngelScriptRuntime@@SAXPEAVUIEventBridge@@@Z
?SetUIInputViewport@SceneRenderLayer@@QEAAXAEBUUIInputViewport@@@Z
?SetUISafeAreaInsets@SceneRenderLayer@@QEAA_NAEBUUISafeAreaInsets@@PEAV?$basic_string@DU?$char_traits@D@std@@V?$allocator@D@2@@std@@@Z
?SetUISystem@AngelScriptRuntime@@SAXPEAVUISystem@@@Z
?SetUp@Camera@@QEAAXAEBUVec3@Math@@@Z
?SetUseGravity@CharacterControllerComponent@@QEAAX_N@Z
?SetUseGravity@RigidBodyComponent@@QEAAX_N@Z
?SetVelocity@RigidBodyComponent@@QEAAXAEBUVec3@Math@@@Z
?SetVelocityFromPhysics@RigidBodyComponent@@AEAAXAEBUVec3@Math@@@Z
?SetVertexBuffer@MeshAsset@@QEAAXV?$shared_ptr@UGpuBuffer@@@std@@@Z
?SetViewportInputEnabled@SceneRenderLayer@@QEAAX_N@Z
?SetViewportRect@RenderViewport@@QEAAXHHHH@Z
?SetViewportRect@SceneViewport@@QEAAXHHHH@Z
?SetVignette@PostProcessComponent@@QEAAXM@Z
?SetVisible@UICanvas@@QEAAX_N@Z
?SetVisible@UICanvasComponent@@QEAAX_N@Z
?SetVolume@AudioSourceComponent@@QEAAXM@Z
?SetWindow@Engine@@QEAAXPEAVIWindow@@@Z
?ShaderGraphCanConnect@@YA_NAEBUPin@ShaderGraphNode@@0@Z
?ShaderGraphUsesTime@@YA_NAEBUShaderGraph@@@Z
?ShaderPassName@@YAPEBDW4ShaderPass@@@Z
?ShaderPropertyTypeName@@YAPEBDW4ShaderPropertyType@@@Z
?Shake@GameplayFeedbackComponent@@QEAAXMM@Z
?ShouldDeferStructuralMutation@Actor@@AEBA_NXZ
?ShowSubtitle@SceneRenderLayer@@QEAA_NUSubtitleCue@@PEAV?$basic_string@DU?$char_traits@D@std@@V?$allocator@D@2@@std@@@Z
?ShowSubtitle@UISystem@@QEAA_NUSubtitleCue@@PEAV?$basic_string@DU?$char_traits@D@std@@V?$allocator@D@2@@std@@@Z
?Shutdown@AudioEngine@@QEAAXXZ
?Shutdown@Engine@@QEAAXXZ
?Shutdown@Input@@SAXXZ
?Shutdown@LinearAllocator@@QEAAXXZ
?Shutdown@MemoryService@@QEAAXXZ
?Shutdown@TaskService@@QEAAXXZ
?Shutdown@UISystem@@QEAAXXZ
?Skin@SkinnedMeshRendererComponent@@QEAAXXZ
?SleepForFrameRate@Engine@@CAXMV?$time_point@Usteady_clock@chrono@std@@V?$duration@_JU?$ratio@$00$0DLJKMKAA@@std@@@23@@chrono@std@@@Z
?SlowMotion@GameplayFeedbackComponent@@QEAAXMM@Z
?SnapshotForScene@DebugDrawService@@QEAA?AV?$shared_ptr@$$CBV?$vector@UDebugDrawCommand@@V?$allocator@UDebugDrawCommand@@@std@@@std@@@std@@AEBVScene@@_KM@Z
?StableId@TypeRegistry@@SA_KAEBV?$basic_string@DU?$char_traits@D@std@@V?$allocator@D@2@@std@@@Z
?StageName@SceneManager@@SAPEBDW4SceneLoadState@@@Z
?Stagger@EnemyAIComponent@@QEAAXM@Z
?StartPlayPhase@Actor@@AEAAXXZ
?Stat@ContentArchiveReader@@QEBA_NAEBV?$basic_string@DU?$char_traits@D@std@@V?$allocator@D@2@@std@@AEAUFileStat@@PEAV23@@Z
?Stat@MountedFileSystem@@UEBA_NAEBV?$basic_string@DU?$char_traits@D@std@@V?$allocator@D@2@@std@@AEAUFileStat@@PEAV23@@Z
?Stat@PackageRootFileSystem@@UEBA_NAEBV?$basic_string@DU?$char_traits@D@std@@V?$allocator@D@2@@std@@AEAUFileStat@@PEAV23@@Z
?Stat@PakFileSystem@@UEBA_NAEBV?$basic_string@DU?$char_traits@D@std@@V?$allocator@D@2@@std@@AEAUFileStat@@PEAV23@@Z
?StateName@GameFlowController@@SAPEBDW4GameFlowState@@@Z
?StepPlay@SceneLayer@@QEAA_NXZ
?Stop@AudioEngine@@QEAAX_K@Z
?Stop@AudioSourceComponent@@QEAAXXZ
?Stop@NavAgentComponent@@QEAAXXZ
?Stop@ParticleSystemComponent@@QEAAX_N@Z
?StopAll@AudioEngine@@QEAAXXZ
?StopPlay@SceneLayer@@QEAAXXZ
?StorePrewarmResults@ShaderManager@@AEAA_NAEBV?$vector@V?$basic_string@DU?$char_traits@D@std@@V?$allocator@D@2@@std@@V?$allocator@V?$basic_string@DU?$char_traits@D@std@@V?$allocator@D@2@@std@@@2@@std@@W4ShaderBackend@@V?$vector@UShaderCacheResult@@V?$allocator@UShaderCacheResult@@@std@@@3@V?$time_point@Usteady_clock@chrono@std@@V?$duration@_JU?$ratio@$00$0DLJKMKAA@@std@@@23@@chrono@3@@Z
?Submit@DebugDrawService@@QEAA_NUDebugDrawCommand@@@Z
?Subscribe@UIEventBridge@@QEAAXPEAVUICanvas@@AEBV?$basic_string@DU?$char_traits@D@std@@V?$allocator@D@2@@std@@1V?$function@$$A6AXAEBUUIEvent@@@Z@4@@Z
?SubscribeAssetChanged@AssetManager@@QEAA_KV?$function@$$A6AXAEBUAssetChangedEvent@@@Z@std@@@Z
?SubscribeForOwner@UIEventBridge@@QEAAXPEAXPEAVUICanvas@@AEBV?$basic_string@DU?$char_traits@D@std@@V?$allocator@D@2@@std@@2V?$function@$$A6AXAEBUUIEvent@@@Z@4@@Z
?SubscribeScriptEvent@AngelScriptRuntime@@QEAA_NAEBV?$basic_string@DU?$char_traits@D@std@@V?$allocator@D@2@@std@@0AEAV23@@Z
?SubscribeScriptEvent@ScriptComponent@@QEAA_NAEBV?$basic_string@DU?$char_traits@D@std@@V?$allocator@D@2@@std@@0@Z
?SubscribeUIEvent@AngelScriptRuntime@@QEAA_NAEBV?$basic_string@DU?$char_traits@D@std@@V?$allocator@D@2@@std@@00AEAV23@@Z
?SubscribeUIEvent@ScriptComponent@@QEAA_NAEBV?$basic_string@DU?$char_traits@D@std@@V?$allocator@D@2@@std@@00@Z
?Summary@AssetDatabaseValidationReport@@QEBA?AV?$basic_string@DU?$char_traits@D@std@@V?$allocator@D@2@@std@@XZ
?Summary@RHIConformanceReport@@QEBA?AV?$basic_string@DU?$char_traits@D@std@@V?$allocator@D@2@@std@@XZ
?SyncGamepadFromHandle@Input@@CAXAEAUGamepadState@1@@Z
?SyncRuntimeScreen@SceneRenderLayer@@AEAAXXZ
?SyncSceneLoadOverlay@SceneRenderLayer@@AEAAXXZ
?TaskCount@TaskScope@@QEBA_KXZ
?Teleport@RigidBodyComponent@@QEAAXAEBUVec3@Math@@0@Z
?Tick@RuntimeResourceBudgetController@@QEAAAEBURuntimeResourceBudgetReport@@XZ
?Tick@WorldFrameScheduler@@QEAAXAEAVScene@@M_N@Z
?Tick@WorldZoneStreamer@@QEAAXAEAVScene@@M@Z
?TickServices@AngelScriptRuntime@@QEAA_NMAEAV?$basic_string@DU?$char_traits@D@std@@V?$allocator@D@2@@std@@@Z
?ToCell@NavigationWorld@@AEBA_NAEBUVec3@Math@@AEAH1@Z
?ToHex@Sha256@@SA?AV?$basic_string@DU?$char_traits@D@std@@V?$allocator@D@2@@std@@AEBV?$array@E$0CA@@3@@Z
?ToJson@InputActionMap@@QEBA?AV?$basic_json@Vmap@std@@Vvector@2@V?$basic_string@DU?$char_traits@D@std@@V?$allocator@D@2@@2@_N_J_KNVallocator@2@Uadl_serializer@json_abi_v3_11_3@nlohmann@@V?$vector@EV?$allocator@E@std@@@2@X@json_abi_v3_11_3@nlohmann@@XZ
?ToJson@RuntimePerformanceProfile@@QEBA?AV?$basic_json@Vmap@std@@Vvector@2@V?$basic_string@DU?$char_traits@D@std@@V?$allocator@D@2@@2@_N_J_KNVallocator@2@Uadl_serializer@json_abi_v3_11_3@nlohmann@@V?$vector@EV?$allocator@E@std@@@2@X@json_abi_v3_11_3@nlohmann@@XZ
?ToJson@RuntimePerformanceReport@@QEBA?AV?$basic_string@DU?$char_traits@D@std@@V?$allocator@D@2@@std@@XZ
?ToJson@RuntimeUserSettingsStore@@SA?AV?$basic_json@Vmap@std@@Vvector@2@V?$basic_string@DU?$char_traits@D@std@@V?$allocator@D@2@@2@_N_J_KNVallocator@2@Uadl_serializer@json_abi_v3_11_3@nlohmann@@V?$vector@EV?$allocator@E@std@@@2@X@json_abi_v3_11_3@nlohmann@@AEBURuntimeUserSettings@@@Z
?ToJson@SaveGame@@SA?AV?$basic_json@Vmap@std@@Vvector@2@V?$basic_string@DU?$char_traits@D@std@@V?$allocator@D@2@@2@_N_J_KNVallocator@2@Uadl_serializer@json_abi_v3_11_3@nlohmann@@V?$vector@EV?$allocator@E@std@@@2@X@json_abi_v3_11_3@nlohmann@@AEBUSaveGameData@@@Z
?ToggleProjectionMode@SceneViewport@@QEAAXXZ
?TopDescriptor@RuntimeUIScreenStack@@AEBAPEBURuntimeUIScreenDescriptor@@XZ
?TopName@RuntimeUIScreenStack@@QEBAAEBV?$basic_string@DU?$char_traits@D@std@@V?$allocator@D@2@@std@@XZ
?Touch@AssetManager@@QEAAX_K@Z
?TrackGlobalMeshResidency@MaterialResourceCache@@SAXPEAVMeshAsset@@@Z
?Transform@Sha256@@AEAAXQEBE@Z
?TrimResourcePool@RenderGraph@@AEAAXXZ
?TryCompileSource@ScriptComponent@@AEAA_NAEBV?$basic_string@DU?$char_traits@D@std@@V?$allocator@D@2@@std@@00V?$basic_json@Vmap@std@@Vvector@2@V?$basic_string@DU?$char_traits@D@std@@V?$allocator@D@2@@2@_N_J_KNVallocator@2@Uadl_serializer@json_abi_v3_11_3@nlohmann@@V?$vector@EV?$allocator@E@std@@@2@X@json_abi_v3_11_3@nlohmann@@1AEAV?$unique_ptr@VAngelScriptRuntime@@U?$default_delete@VAngelScriptRuntime@@@std@@@3@AEAV456@3AEAV?$vector@V?$basic_string@DU?$char_traits@D@std@@V?$allocator@D@2@@std@@V?$allocator@V?$basic_string@DU?$char_traits@D@std@@V?$allocator@D@2@@std@@@2@@3@AEAV23@@Z
?TryGetActor@Scene@@QEAAPEAVActor@@UActorHandle@@@Z
?TryGetActor@Scene@@QEBAPEBVActor@@UActorHandle@@@Z
?Uninstall@CrashHandler@@SAXXZ
?Unload@AssetManager@@QEAAXAEBV?$basic_string@DU?$char_traits@D@std@@V?$allocator@D@2@@std@@@Z
?Unload@AssetManager@@QEAAX_K@Z
?UnloadUnreferenced@AssetManager@@QEAAXXZ
?Unpack@PrefabSystem@@SA_NAEAVActor@@PEAV?$basic_string@DU?$char_traits@D@std@@V?$allocator@D@2@@std@@@Z
?Unpin@AssetManager@@QEAAXAEBV?$basic_string@DU?$char_traits@D@std@@V?$allocator@D@2@@std@@@Z
?Unregister@WorldZoneStreamer@@QEAA_NAEAVScene@@AEBV?$basic_string@DU?$char_traits@D@std@@V?$allocator@D@2@@std@@@Z
?Unsubscribe@UIEventBridge@@QEAAXPEAXAEBV?$basic_string@DU?$char_traits@D@std@@V?$allocator@D@2@@std@@1@Z
?UnsubscribeAssetChanged@AssetManager@@QEAAX_K@Z
?UnsubscribeUIEvent@AngelScriptRuntime@@QEAAXAEBV?$basic_string@DU?$char_traits@D@std@@V?$allocator@D@2@@std@@0@Z
?UnsubscribeUIEvent@ScriptComponent@@QEAAXAEBV?$basic_string@DU?$char_traits@D@std@@V?$allocator@D@2@@std@@0@Z
?Update@Actor@@QEAAXM@Z
?Update@AudioEngine@@QEAAXXZ
?Update@GpuSceneDatabase@@QEAA_NAEBVScene@@_K@Z
?Update@NavigationWorld@@UEAAXM@Z
?Update@Sha256@@QEAAXPEBX_K@Z
?Update@SubtitleSystem@@QEAAXM@Z
?Update@UISystem@@QEAAXAEAVScene@@M@Z
?UpdateCameraAspect@RenderViewport@@IEAAXAEAVCamera@@@Z
?UpdateEvents@AnimatorComponent@@AEAAXAEBUAnimatorState@@MM@Z
?UpdateHistoryValidity@ModernDeferredPipeline@@AEAAXAEBVCamera@@AEBUModernPostProcessSettings@@@Z
?UpdateLayers@Engine@@AEAAXXZ
?UpdateSceneMetadata@ProbeLightingSystem@@AEAA_NAEBVScene@@@Z
?UploadAsset@ProbeLightingSystem@@AEAA_NXZ
?UploadDirtyRanges@GpuSceneDatabase@@AEAAXAEBV?$vector@UGpuSceneObjectData@@V?$allocator@UGpuSceneObjectData@@@std@@@std@@AEBV?$vector@UGpuSceneLightData@@V?$allocator@UGpuSceneLightData@@@std@@@3@@Z
?UploadFallbackResources@ProbeLightingSystem@@AEAA_NXZ
?Upsert@AssetDatabase@@QEAA_NUAssetRecord@@PEAV?$basic_string@DU?$char_traits@D@std@@V?$allocator@D@2@@std@@@Z
?UseFallbackCamera@GameViewport@@AEAAXXZ
?UsesExternalViewportRect@RenderViewport@@QEBA_NXZ
?UsesGpuSkinning@SkinnedMeshRendererComponent@@QEBA_NXZ
?UsesGravity@CharacterControllerComponent@@QEBA_NXZ
?UsesGravity@RigidBodyComponent@@QEBA_NXZ
?UsesRayTracedAOReplacement@PostProcessComponent@@QEBA_NXZ
?UsesRayTracedDiffuseReplacement@PostProcessComponent@@QEBA_NXZ
?UsesRayTracedReflectionReplacement@PostProcessComponent@@QEBA_NXZ
?UsesRayTracedShadowReplacement@PostProcessComponent@@QEBA_NXZ
?Validate@AssetDatabase@@QEBA_NPEAV?$basic_string@DU?$char_traits@D@std@@V?$allocator@D@2@@std@@@Z
?Validate@CookManifest@@QEBA_NPEAV?$basic_string@DU?$char_traits@D@std@@V?$allocator@D@2@@std@@@Z
?Validate@LightingProbeAsset@@QEBA_NPEAV?$basic_string@DU?$char_traits@D@std@@V?$allocator@D@2@@std@@@Z
?Validate@PrefabAsset@@QEBA_NPEAV?$basic_string@DU?$char_traits@D@std@@V?$allocator@D@2@@std@@@Z
?Validate@RuntimeUserSettingsStore@@SA_NAEBURuntimeUserSettings@@PEAV?$basic_string@DU?$char_traits@D@std@@V?$allocator@D@2@@std@@@Z
?Validate@ShaderGraphCompiler@@YA_NAEBUShaderGraph@@AEBV?$vector@UShaderPropertyDesc@@V?$allocator@UShaderPropertyDesc@@@std@@@std@@AEAV?$vector@UShaderGraphDiagnostic@@V?$allocator@UShaderGraphDiagnostic@@@std@@@4@@Z
?ValidateAccelerationStructureAccess@RenderGraph@@AEAA_NAEBUPass@1@AEBUAccelerationStructureAccess@RenderGraphBuilder@@@Z
?ValidateAgainstManifest@ContentArchiveReader@@QEBA_NAEBUCookManifest@@PEAV?$basic_string@DU?$char_traits@D@std@@V?$allocator@D@2@@std@@@Z
?ValidateAgainstProject@AssetDatabase@@QEBA_NAEBVpath@filesystem@std@@AEAUAssetDatabaseValidationReport@@@Z
?ValidateBufferAccess@RenderGraph@@AEAA_NAEBUPass@1@AEBUBufferAccess@RenderGraphBuilder@@@Z
?ValidateFiles@RuntimeDependencyManifest@@QEBA_NAEBVpath@filesystem@std@@PEAV?$basic_string@DU?$char_traits@D@std@@V?$allocator@D@2@@4@@Z
?ValidateHandle@RenderGraph@@AEAA_NURGTextureHandle@@AEBV?$basic_string@DU?$char_traits@D@std@@V?$allocator@D@2@@std@@@Z
?ValidatePackage@RuntimeDependencyManifest@@SA_NAEBVpath@filesystem@std@@PEAV?$basic_string@DU?$char_traits@D@std@@V?$allocator@D@2@@4@@Z
?ValidateTextureAccess@RenderGraph@@AEAA_NAEBUPass@1@AEBUAccess@RenderGraphBuilder@@@Z
?VertexCount@MeshAsset@@QEBAIXZ
?WakeUp@RigidBodyComponent@@QEAAXXZ
?WorkerLoop@TaskService@@AEAAXXZ
?WorldPhaseName@@YAPEBDW4WorldPhase@@@Z
?Write@SaveGame@@SA_NAEBV?$basic_string@DU?$char_traits@D@std@@V?$allocator@D@2@@std@@AEBUSaveGameData@@PEAV23@@Z
?WriteAccelerationStructure@RenderGraphBuilder@@QEAAXURGAccelerationStructureHandle@@@Z
?WriteAutosave@SaveGame@@SA_NAEBUSaveGameData@@_KPEAV?$basic_string@DU?$char_traits@D@std@@V?$allocator@D@2@@std@@2@Z
?WriteCheckpoint@SaveGame@@SA_NAEBV?$basic_string@DU?$char_traits@D@std@@V?$allocator@D@2@@std@@AEBUSaveGameData@@PEAV23@2@Z
?WriteColor@RenderGraphBuilder@@QEAAXURGTextureHandle@@URGTextureSubresource@@W4RHILoadOp@@W4RHIStoreOp@@UClearColor@@@Z
?WriteColor@RenderGraphBuilder@@QEAAXURGTextureHandle@@W4RHILoadOp@@W4RHIStoreOp@@UClearColor@@@Z
?WriteDefaultFile@InputActionMap@@SA_NAEBVpath@filesystem@std@@PEAV?$basic_string@DU?$char_traits@D@std@@V?$allocator@D@2@@4@@Z
?WriteDepth@RenderGraphBuilder@@QEAAXURGTextureHandle@@URGTextureSubresource@@W4RHILoadOp@@W4RHIStoreOp@@M@Z
?WriteDepth@RenderGraphBuilder@@QEAAXURGTextureHandle@@W4RHILoadOp@@W4RHIStoreOp@@M@Z
?WriteDiagnosticReport@CrashHandler@@SA?AV?$basic_string@DU?$char_traits@D@std@@V?$allocator@D@2@@std@@AEBV23@@Z
?WriteIco@IconsManager@@QEAA_NV?$basic_string_view@DU?$char_traits@D@std@@@std@@AEBVpath@filesystem@3@AEBV?$vector@HV?$allocator@H@std@@@3@UIconColor@@@Z
?WriteText@TransactionalFileWriter@@SA_NAEBVpath@filesystem@std@@V?$basic_string_view@DU?$char_traits@D@std@@@4@AEBUTransactionalWriteOptions@@PEAV?$basic_string@DU?$char_traits@D@std@@V?$allocator@D@2@@4@@Z
?kComputeMask@ShaderAsset@@2IB
?kConstantSlotCount@MaterialSystem@@2_KB
?kCookedFormatVersion@ShaderAsset@@2IB
?kCookedFormatVersionWithMetal@ShaderAsset@@2IB
?kCookedFormatVersionWithPasses@ShaderAsset@@2IB
?kCookedFormatVersionWithReflection@ShaderAsset@@2IB
?kCookedFormatVersionWithVulkan@ShaderAsset@@2IB
?kCookedShaderAbiVersion@ShaderAsset@@2IB
?kCookerIcon@IconsManager@@2QEBDEB
?kCurrentVersion@CookManifest@@2HB
?kCurrentVersion@InputActionMap@@2HB
?kCurrentVersion@ProjectConfig@@2HB
?kDefaultProjectPath@InputActionMap@@2QEBDEB
?kDescriptionVersion@ShaderAsset@@2IB
?kDiagnosticsReadbackInterval@ModernDeferredPipeline@@0_KB
?kEditorIcon@IconsManager@@2QEBDEB
?kFileName@ContentArchive@@2QEBDEB
?kFileName@CookManifest@@2QEBDEB
?kFileName@ProjectConfig@@2QEBDEB
?kFileName@RuntimeDependencyManifest@@2QEBDEB
?kFormatVersion@ShaderAsset@@2IB
?kLegacyCookedFormatVersion@ShaderAsset@@2IB
?kLegacyDescriptionVersion@ShaderAsset@@2IB
?kMaxActiveCommands@DebugDrawService@@2_KB
?kMaxCandidateObjects@GpuSceneDatabase@@2IB
?kMaxLocalLights@GpuSceneDatabase@@2IB
?kMaxParentDepth@MaterialSystem@@2_KB
?kMaxPendingCommands@DebugDrawService@@2_KB
?kPixelMask@ShaderAsset@@2IB
?kPlayerIcon@IconsManager@@2QEBDEB
?kPreviousCookedShaderAbiVersion@ShaderAsset@@2IB
?kShadowStreamRetireSubmissions@ModernDeferredPipeline@@0_KB
?kVersion@AssetDatabase@@2IB
?kVersion@PrefabAsset@@2IB
?kVersion@RuntimeDependencyManifest@@2HB
?kVertexMask@ShaderAsset@@2IB
?k_MaxButtons@Input@@2HB
?k_MaxGamepads@Input@@2HB
?k_MaxKeys@Input@@2HB
?s_ActionMap@Input@@0VInputActionMap@@A
?s_BaseActionMap@Input@@0VInputActionMap@@A
?s_GamepadDeadZone@Input@@0MA
?s_GamepadSensitivity@Input@@0MA
?s_Gamepads@Input@@0V?$array@UGamepadState@Input@@$03@std@@A
?s_GameplayInputEnabled@Input@@0_NA
?s_GlyphAtlas@Input@@0VInputGlyphAtlas@@A
?s_GlyphLocale@Input@@0V?$basic_string@DU?$char_traits@D@std@@V?$allocator@D@2@@std@@A
?s_InvertY@Input@@0_NA
?s_Keys@Input@@0V?$array@_N$0CAA@@std@@A
?s_KeysPrev@Input@@0V?$array@_N$0CAA@@std@@A
?s_LastActiveDevice@Input@@0W4InputDeviceKind@@A
?s_Mouse@Input@@0V?$array@_N$07@std@@A
?s_MousePrev@Input@@0V?$array@_N$07@std@@A
?s_MouseRelX@Input@@0HA
?s_MouseRelY@Input@@0HA
?s_MouseSensitivity@Input@@0MA
?s_MouseX@Input@@0HA
?s_MouseY@Input@@0HA
?s_VibrationStrength@Input@@0MA
